
./a.exe:     file format pei-i386


Disassembly of section .text:

00401000 <_WinMainCRTStartup>:
  401000:	55                   	push   ebp
  401001:	89 e5                	mov    ebp,esp
  401003:	83 ec 18             	sub    esp,0x18
  401006:	83 e4 f0             	and    esp,0xfffffff0
  401009:	c7 04 24 f0 11 40 00 	mov    DWORD PTR [esp],0x4011f0
  401010:	e8 ab 02 00 00       	call   4012c0 <_cygwin_crt0>
  401015:	c7 44 24 08 00 00 00 	mov    DWORD PTR [esp+0x8],0x0
  40101c:	00 
  40101d:	c7 44 24 04 00 00 00 	mov    DWORD PTR [esp+0x4],0x0
  401024:	00 
  401025:	c7 04 24 00 00 00 00 	mov    DWORD PTR [esp],0x0
  40102c:	e8 bf 02 00 00       	call   4012f0 <_cygwin_premain0>
  401031:	c7 44 24 08 00 00 00 	mov    DWORD PTR [esp+0x8],0x0
  401038:	00 
  401039:	c7 44 24 04 00 00 00 	mov    DWORD PTR [esp+0x4],0x0
  401040:	00 
  401041:	c7 04 24 00 00 00 00 	mov    DWORD PTR [esp],0x0
  401048:	e8 b3 02 00 00       	call   401300 <_cygwin_premain1>
  40104d:	c7 44 24 08 00 00 00 	mov    DWORD PTR [esp+0x8],0x0
  401054:	00 
  401055:	c7 44 24 04 00 00 00 	mov    DWORD PTR [esp+0x4],0x0
  40105c:	00 
  40105d:	c7 04 24 00 00 00 00 	mov    DWORD PTR [esp],0x0
  401064:	e8 a7 02 00 00       	call   401310 <_cygwin_premain2>
  401069:	c7 44 24 08 00 00 00 	mov    DWORD PTR [esp+0x8],0x0
  401070:	00 
  401071:	c7 44 24 04 00 00 00 	mov    DWORD PTR [esp+0x4],0x0
  401078:	00 
  401079:	c7 04 24 00 00 00 00 	mov    DWORD PTR [esp],0x0
  401080:	e8 9b 02 00 00       	call   401320 <_cygwin_premain3>
  401085:	c9                   	leave  
  401086:	c3                   	ret    
  401087:	90                   	nop
  401088:	90                   	nop
  401089:	90                   	nop
  40108a:	90                   	nop
  40108b:	90                   	nop
  40108c:	90                   	nop
  40108d:	90                   	nop
  40108e:	90                   	nop
  40108f:	90                   	nop

00401090 <___gcc_register_frame>:
  401090:	55                   	push   ebp
  401091:	89 e5                	mov    ebp,esp
  401093:	57                   	push   edi
  401094:	56                   	push   esi
  401095:	53                   	push   ebx
  401096:	83 ec 2c             	sub    esp,0x2c
  401099:	8b 35 b8 70 40 00    	mov    esi,DWORD PTR ds:0x4070b8
  40109f:	c7 04 24 00 30 40 00 	mov    DWORD PTR [esp],0x403000
  4010a6:	ff d6                	call   esi
  4010a8:	83 ec 04             	sub    esp,0x4
  4010ab:	85 c0                	test   eax,eax
  4010ad:	89 c3                	mov    ebx,eax
  4010af:	0f 84 ad 00 00 00    	je     401162 <___gcc_register_frame+0xd2>
  4010b5:	8b 15 bc 70 40 00    	mov    edx,DWORD PTR ds:0x4070bc
  4010bb:	c7 44 24 04 0f 30 40 	mov    DWORD PTR [esp+0x4],0x40300f
  4010c2:	00 
  4010c3:	89 04 24             	mov    DWORD PTR [esp],eax
  4010c6:	89 55 e4             	mov    DWORD PTR [ebp-0x1c],edx
  4010c9:	ff d2                	call   edx
  4010cb:	83 ec 08             	sub    esp,0x8
  4010ce:	89 c7                	mov    edi,eax
  4010d0:	8b 55 e4             	mov    edx,DWORD PTR [ebp-0x1c]
  4010d3:	c7 44 24 04 25 30 40 	mov    DWORD PTR [esp+0x4],0x403025
  4010da:	00 
  4010db:	89 1c 24             	mov    DWORD PTR [esp],ebx
  4010de:	ff d2                	call   edx
  4010e0:	83 ec 08             	sub    esp,0x8
  4010e3:	a3 00 20 40 00       	mov    ds:0x402000,eax
  4010e8:	85 ff                	test   edi,edi
  4010ea:	74 11                	je     4010fd <___gcc_register_frame+0x6d>
  4010ec:	c7 44 24 04 00 60 40 	mov    DWORD PTR [esp+0x4],0x406000
  4010f3:	00 
  4010f4:	c7 04 24 38 50 40 00 	mov    DWORD PTR [esp],0x405038
  4010fb:	ff d7                	call   edi
  4010fd:	a1 40 20 40 00       	mov    eax,ds:0x402040
  401102:	85 c0                	test   eax,eax
  401104:	74 38                	je     40113e <___gcc_register_frame+0xae>
  401106:	c7 04 24 3d 30 40 00 	mov    DWORD PTR [esp],0x40303d
  40110d:	ff d6                	call   esi
  40110f:	83 ec 04             	sub    esp,0x4
  401112:	85 c0                	test   eax,eax
  401114:	ba 00 00 00 00       	mov    edx,0x0
  401119:	74 16                	je     401131 <___gcc_register_frame+0xa1>
  40111b:	c7 44 24 04 4b 30 40 	mov    DWORD PTR [esp+0x4],0x40304b
  401122:	00 
  401123:	89 04 24             	mov    DWORD PTR [esp],eax
  401126:	ff 15 bc 70 40 00    	call   DWORD PTR ds:0x4070bc
  40112c:	83 ec 08             	sub    esp,0x8
  40112f:	89 c2                	mov    edx,eax
  401131:	85 d2                	test   edx,edx
  401133:	74 09                	je     40113e <___gcc_register_frame+0xae>
  401135:	c7 04 24 40 20 40 00 	mov    DWORD PTR [esp],0x402040
  40113c:	ff d2                	call   edx
  40113e:	c7 44 24 08 04 20 40 	mov    DWORD PTR [esp+0x8],0x402004
  401145:	00 
  401146:	c7 44 24 04 00 00 00 	mov    DWORD PTR [esp+0x4],0x0
  40114d:	00 
  40114e:	c7 04 24 80 11 40 00 	mov    DWORD PTR [esp],0x401180
  401155:	e8 3e 01 00 00       	call   401298 <___cxa_atexit>
  40115a:	8d 65 f4             	lea    esp,[ebp-0xc]
  40115d:	5b                   	pop    ebx
  40115e:	5e                   	pop    esi
  40115f:	5f                   	pop    edi
  401160:	5d                   	pop    ebp
  401161:	c3                   	ret    
  401162:	c7 05 00 20 40 00 00 	mov    DWORD PTR ds:0x402000,0x0
  401169:	00 00 00 
  40116c:	bf 00 00 00 00       	mov    edi,0x0
  401171:	e9 72 ff ff ff       	jmp    4010e8 <___gcc_register_frame+0x58>
  401176:	8d 76 00             	lea    esi,[esi+0x0]
  401179:	8d bc 27 00 00 00 00 	lea    edi,[edi+eiz*1+0x0]

00401180 <___gcc_deregister_frame>:
  401180:	a1 00 20 40 00       	mov    eax,ds:0x402000
  401185:	85 c0                	test   eax,eax
  401187:	74 10                	je     401199 <___gcc_deregister_frame+0x19>
  401189:	55                   	push   ebp
  40118a:	89 e5                	mov    ebp,esp
  40118c:	83 ec 18             	sub    esp,0x18
  40118f:	c7 04 24 38 50 40 00 	mov    DWORD PTR [esp],0x405038
  401196:	ff d0                	call   eax
  401198:	c9                   	leave  
  401199:	f3 c3                	repz ret 
  40119b:	90                   	nop
  40119c:	90                   	nop
  40119d:	90                   	nop
  40119e:	90                   	nop
  40119f:	90                   	nop

004011a0 <_filling>:
  4011a0:	55                   	push   ebp
  4011a1:	89 e5                	mov    ebp,esp
  4011a3:	8b 45 08             	mov    eax,DWORD PTR [ebp+0x8]
  4011a6:	c7 00 02 00 00 00    	mov    DWORD PTR [eax],0x2
  4011ac:	8b 55 08             	mov    edx,DWORD PTR [ebp+0x8]
  4011af:	a1 7c 30 40 00       	mov    eax,ds:0x40307c
  4011b4:	89 42 04             	mov    DWORD PTR [edx+0x4],eax
  4011b7:	8b 45 08             	mov    eax,DWORD PTR [ebp+0x8]
  4011ba:	c7 40 08 60 30 40 00 	mov    DWORD PTR [eax+0x8],0x403060
  4011c1:	b8 00 00 00 00       	mov    eax,0x0
  4011c6:	5d                   	pop    ebp
  4011c7:	c3                   	ret    

004011c8 <_empty>:
  4011c8:	55                   	push   ebp
  4011c9:	89 e5                	mov    ebp,esp
  4011cb:	8b 45 08             	mov    eax,DWORD PTR [ebp+0x8]
  4011ce:	c7 00 00 00 00 00    	mov    DWORD PTR [eax],0x0
  4011d4:	8b 55 08             	mov    edx,DWORD PTR [ebp+0x8]
  4011d7:	a1 80 30 40 00       	mov    eax,ds:0x403080
  4011dc:	89 42 04             	mov    DWORD PTR [edx+0x4],eax
  4011df:	8b 45 08             	mov    eax,DWORD PTR [ebp+0x8]
  4011e2:	c7 40 08 00 00 00 00 	mov    DWORD PTR [eax+0x8],0x0
  4011e9:	b8 00 00 00 00       	mov    eax,0x0
  4011ee:	5d                   	pop    ebp
  4011ef:	c3                   	ret    

004011f0 <_main>:
  4011f0:	55                   	push   ebp
  4011f1:	89 e5                	mov    ebp,esp
  4011f3:	83 e4 f0             	and    esp,0xfffffff0
  4011f6:	83 ec 30             	sub    esp,0x30
  4011f9:	e8 a2 00 00 00       	call   4012a0 <___main>
  4011fe:	c7 44 24 2c 00 00 00 	mov    DWORD PTR [esp+0x2c],0x0
  401205:	00 
  401206:	c7 44 24 04 01 00 00 	mov    DWORD PTR [esp+0x4],0x1
  40120d:	00 
  40120e:	c7 04 24 0c 00 00 00 	mov    DWORD PTR [esp],0xc
  401215:	e8 8e 00 00 00       	call   4012a8 <_calloc>
  40121a:	89 44 24 2c          	mov    DWORD PTR [esp+0x2c],eax
  40121e:	8b 44 24 2c          	mov    eax,DWORD PTR [esp+0x2c]
  401222:	89 04 24             	mov    DWORD PTR [esp],eax
  401225:	e8 76 ff ff ff       	call   4011a0 <_filling>
  40122a:	8b 44 24 2c          	mov    eax,DWORD PTR [esp+0x2c]
  40122e:	8b 50 08             	mov    edx,DWORD PTR [eax+0x8]
  401231:	8b 44 24 2c          	mov    eax,DWORD PTR [esp+0x2c]
  401235:	d9 40 04             	fld    DWORD PTR [eax+0x4]
  401238:	8b 44 24 2c          	mov    eax,DWORD PTR [esp+0x2c]
  40123c:	8b 00                	mov    eax,DWORD PTR [eax]
  40123e:	89 54 24 10          	mov    DWORD PTR [esp+0x10],edx
  401242:	dd 5c 24 08          	fstp   QWORD PTR [esp+0x8]
  401246:	89 44 24 04          	mov    DWORD PTR [esp+0x4],eax
  40124a:	c7 04 24 6d 30 40 00 	mov    DWORD PTR [esp],0x40306d
  401251:	e8 5a 00 00 00       	call   4012b0 <_printf>
  401256:	8b 44 24 2c          	mov    eax,DWORD PTR [esp+0x2c]
  40125a:	89 04 24             	mov    DWORD PTR [esp],eax
  40125d:	e8 66 ff ff ff       	call   4011c8 <_empty>
  401262:	8b 44 24 2c          	mov    eax,DWORD PTR [esp+0x2c]
  401266:	8b 50 08             	mov    edx,DWORD PTR [eax+0x8]
  401269:	8b 44 24 2c          	mov    eax,DWORD PTR [esp+0x2c]
  40126d:	d9 40 04             	fld    DWORD PTR [eax+0x4]
  401270:	8b 44 24 2c          	mov    eax,DWORD PTR [esp+0x2c]
  401274:	8b 00                	mov    eax,DWORD PTR [eax]
  401276:	89 54 24 10          	mov    DWORD PTR [esp+0x10],edx
  40127a:	dd 5c 24 08          	fstp   QWORD PTR [esp+0x8]
  40127e:	89 44 24 04          	mov    DWORD PTR [esp+0x4],eax
  401282:	c7 04 24 6d 30 40 00 	mov    DWORD PTR [esp],0x40306d
  401289:	e8 22 00 00 00       	call   4012b0 <_printf>
  40128e:	b8 00 00 00 00       	mov    eax,0x0
  401293:	c9                   	leave  
  401294:	c3                   	ret    
  401295:	90                   	nop
  401296:	90                   	nop
  401297:	90                   	nop

00401298 <___cxa_atexit>:
  401298:	ff 25 80 70 40 00    	jmp    DWORD PTR ds:0x407080
  40129e:	90                   	nop
  40129f:	90                   	nop

004012a0 <___main>:
  4012a0:	ff 25 84 70 40 00    	jmp    DWORD PTR ds:0x407084
  4012a6:	90                   	nop
  4012a7:	90                   	nop

004012a8 <_calloc>:
  4012a8:	ff 25 90 70 40 00    	jmp    DWORD PTR ds:0x407090
  4012ae:	90                   	nop
  4012af:	90                   	nop

004012b0 <_printf>:
  4012b0:	ff 25 ac 70 40 00    	jmp    DWORD PTR ds:0x4070ac
  4012b6:	90                   	nop
  4012b7:	90                   	nop
  4012b8:	66 90                	xchg   ax,ax
  4012ba:	66 90                	xchg   ax,ax
  4012bc:	66 90                	xchg   ax,ax
  4012be:	66 90                	xchg   ax,ax

004012c0 <_cygwin_crt0>:
  4012c0:	55                   	push   ebp
  4012c1:	89 e5                	mov    ebp,esp
  4012c3:	83 ec 18             	sub    esp,0x18
  4012c6:	8b 45 08             	mov    eax,DWORD PTR [ebp+0x8]
  4012c9:	c7 44 24 04 00 00 00 	mov    DWORD PTR [esp+0x4],0x0
  4012d0:	00 
  4012d1:	89 04 24             	mov    DWORD PTR [esp],eax
  4012d4:	e8 57 00 00 00       	call   401330 <__cygwin_crt0_common@8>
  4012d9:	83 ec 08             	sub    esp,0x8
  4012dc:	ff 15 88 70 40 00    	call   DWORD PTR ds:0x407088
  4012e2:	90                   	nop
  4012e3:	90                   	nop
  4012e4:	90                   	nop
  4012e5:	90                   	nop
  4012e6:	90                   	nop
  4012e7:	90                   	nop
  4012e8:	90                   	nop
  4012e9:	90                   	nop
  4012ea:	90                   	nop
  4012eb:	90                   	nop
  4012ec:	90                   	nop
  4012ed:	90                   	nop
  4012ee:	90                   	nop
  4012ef:	90                   	nop

004012f0 <_cygwin_premain0>:
  4012f0:	f3 c3                	repz ret 
  4012f2:	90                   	nop
  4012f3:	90                   	nop
  4012f4:	90                   	nop
  4012f5:	90                   	nop
  4012f6:	90                   	nop
  4012f7:	90                   	nop
  4012f8:	90                   	nop
  4012f9:	90                   	nop
  4012fa:	90                   	nop
  4012fb:	90                   	nop
  4012fc:	90                   	nop
  4012fd:	90                   	nop
  4012fe:	90                   	nop
  4012ff:	90                   	nop

00401300 <_cygwin_premain1>:
  401300:	f3 c3                	repz ret 
  401302:	90                   	nop
  401303:	90                   	nop
  401304:	90                   	nop
  401305:	90                   	nop
  401306:	90                   	nop
  401307:	90                   	nop
  401308:	90                   	nop
  401309:	90                   	nop
  40130a:	90                   	nop
  40130b:	90                   	nop
  40130c:	90                   	nop
  40130d:	90                   	nop
  40130e:	90                   	nop
  40130f:	90                   	nop

00401310 <_cygwin_premain2>:
  401310:	f3 c3                	repz ret 
  401312:	90                   	nop
  401313:	90                   	nop
  401314:	90                   	nop
  401315:	90                   	nop
  401316:	90                   	nop
  401317:	90                   	nop
  401318:	90                   	nop
  401319:	90                   	nop
  40131a:	90                   	nop
  40131b:	90                   	nop
  40131c:	90                   	nop
  40131d:	90                   	nop
  40131e:	90                   	nop
  40131f:	90                   	nop

00401320 <_cygwin_premain3>:
  401320:	f3 c3                	repz ret 
  401322:	90                   	nop
  401323:	90                   	nop
  401324:	90                   	nop
  401325:	90                   	nop
  401326:	90                   	nop
  401327:	90                   	nop
  401328:	90                   	nop
  401329:	90                   	nop
  40132a:	90                   	nop
  40132b:	90                   	nop
  40132c:	90                   	nop
  40132d:	90                   	nop
  40132e:	90                   	nop
  40132f:	90                   	nop

00401330 <__cygwin_crt0_common@8>:
  401330:	55                   	push   ebp
  401331:	89 e5                	mov    ebp,esp
  401333:	53                   	push   ebx
  401334:	83 ec 14             	sub    esp,0x14
  401337:	8b 5d 0c             	mov    ebx,DWORD PTR [ebp+0xc]
  40133a:	c7 04 24 08 00 00 00 	mov    DWORD PTR [esp],0x8
  401341:	e8 52 04 00 00       	call   401798 <_cygwin_internal>
  401346:	85 db                	test   ebx,ebx
  401348:	0f 84 c8 01 00 00    	je     401516 <__cygwin_crt0_common@8+0x1e6>
  40134e:	8b 15 8c 70 40 00    	mov    edx,DWORD PTR ds:0x40708c
  401354:	85 c0                	test   eax,eax
  401356:	8b 4d 08             	mov    ecx,DWORD PTR [ebp+0x8]
  401359:	c7 43 04 a8 00 00 00 	mov    DWORD PTR [ebx+0x4],0xa8
  401360:	c7 43 08 ef 03 00 00 	mov    DWORD PTR [ebx+0x8],0x3ef
  401367:	89 53 10             	mov    DWORD PTR [ebx+0x10],edx
  40136a:	8b 55 00             	mov    edx,DWORD PTR [ebp+0x0]
  40136d:	c7 43 0c 23 00 00 00 	mov    DWORD PTR [ebx+0xc],0x23
  401374:	c7 83 80 00 00 00 00 	mov    DWORD PTR [ebx+0x80],0x0
  40137b:	00 00 00 
  40137e:	c7 83 84 00 00 00 1f 	mov    DWORD PTR [ebx+0x84],0x11f
  401385:	01 00 00 
  401388:	c7 43 2c 20 18 40 00 	mov    DWORD PTR [ebx+0x2c],0x401820
  40138f:	c7 43 30 2c 18 40 00 	mov    DWORD PTR [ebx+0x30],0x40182c
  401396:	c7 43 14 1c 60 40 00 	mov    DWORD PTR [ebx+0x14],0x40601c
  40139d:	89 4b 28             	mov    DWORD PTR [ebx+0x28],ecx
  4013a0:	c7 43 48 f0 12 40 00 	mov    DWORD PTR [ebx+0x48],0x4012f0
  4013a7:	c7 43 4c 00 13 40 00 	mov    DWORD PTR [ebx+0x4c],0x401300
  4013ae:	c7 43 50 10 13 40 00 	mov    DWORD PTR [ebx+0x50],0x401310
  4013b5:	c7 43 54 20 13 40 00 	mov    DWORD PTR [ebx+0x54],0x401320
  4013bc:	c7 43 24 18 60 40 00 	mov    DWORD PTR [ebx+0x24],0x406018
  4013c3:	89 13                	mov    DWORD PTR [ebx],edx
  4013c5:	c7 43 18 a8 17 40 00 	mov    DWORD PTR [ebx+0x18],0x4017a8
  4013cc:	c7 43 1c a0 17 40 00 	mov    DWORD PTR [ebx+0x1c],0x4017a0
  4013d3:	c7 43 20 b8 17 40 00 	mov    DWORD PTR [ebx+0x20],0x4017b8
  4013da:	c7 43 44 a8 12 40 00 	mov    DWORD PTR [ebx+0x44],0x4012a8
  4013e1:	c7 83 90 00 00 00 b0 	mov    DWORD PTR [ebx+0x90],0x4017b0
  4013e8:	17 40 00 
  4013eb:	0f 84 c1 00 00 00    	je     4014b2 <__cygwin_crt0_common@8+0x182>
  4013f1:	8b 50 78             	mov    edx,DWORD PTR [eax+0x78]
  4013f4:	85 d2                	test   edx,edx
  4013f6:	0f 84 b6 00 00 00    	je     4014b2 <__cygwin_crt0_common@8+0x182>
  4013fc:	8b 0d 20 60 40 00    	mov    ecx,DWORD PTR ds:0x406020
  401402:	85 c9                	test   ecx,ecx
  401404:	0f 85 a8 00 00 00    	jne    4014b2 <__cygwin_crt0_common@8+0x182>
  40140a:	a1 20 20 40 00       	mov    eax,ds:0x402020
  40140f:	85 c0                	test   eax,eax
  401411:	0f 84 29 02 00 00    	je     401640 <__cygwin_crt0_common@8+0x310>
  401417:	a1 24 20 40 00       	mov    eax,ds:0x402024
  40141c:	85 c0                	test   eax,eax
  40141e:	0f 84 0c 02 00 00    	je     401630 <__cygwin_crt0_common@8+0x300>
  401424:	a1 28 20 40 00       	mov    eax,ds:0x402028
  401429:	85 c0                	test   eax,eax
  40142b:	0f 84 ef 01 00 00    	je     401620 <__cygwin_crt0_common@8+0x2f0>
  401431:	a1 2c 20 40 00       	mov    eax,ds:0x40202c
  401436:	85 c0                	test   eax,eax
  401438:	0f 84 d2 01 00 00    	je     401610 <__cygwin_crt0_common@8+0x2e0>
  40143e:	a1 30 20 40 00       	mov    eax,ds:0x402030
  401443:	85 c0                	test   eax,eax
  401445:	0f 84 b5 01 00 00    	je     401600 <__cygwin_crt0_common@8+0x2d0>
  40144b:	a1 34 20 40 00       	mov    eax,ds:0x402034
  401450:	85 c0                	test   eax,eax
  401452:	0f 84 98 01 00 00    	je     4015f0 <__cygwin_crt0_common@8+0x2c0>
  401458:	8b 0d 38 20 40 00    	mov    ecx,DWORD PTR ds:0x402038
  40145e:	85 c9                	test   ecx,ecx
  401460:	0f 84 7a 01 00 00    	je     4015e0 <__cygwin_crt0_common@8+0x2b0>
  401466:	a1 3c 20 40 00       	mov    eax,ds:0x40203c
  40146b:	85 c0                	test   eax,eax
  40146d:	0f 84 5d 01 00 00    	je     4015d0 <__cygwin_crt0_common@8+0x2a0>
  401473:	a1 20 20 40 00       	mov    eax,ds:0x402020
  401478:	89 02                	mov    DWORD PTR [edx],eax
  40147a:	a1 24 20 40 00       	mov    eax,ds:0x402024
  40147f:	89 42 04             	mov    DWORD PTR [edx+0x4],eax
  401482:	a1 28 20 40 00       	mov    eax,ds:0x402028
  401487:	89 42 08             	mov    DWORD PTR [edx+0x8],eax
  40148a:	a1 2c 20 40 00       	mov    eax,ds:0x40202c
  40148f:	89 42 0c             	mov    DWORD PTR [edx+0xc],eax
  401492:	a1 30 20 40 00       	mov    eax,ds:0x402030
  401497:	89 42 10             	mov    DWORD PTR [edx+0x10],eax
  40149a:	a1 34 20 40 00       	mov    eax,ds:0x402034
  40149f:	89 42 14             	mov    DWORD PTR [edx+0x14],eax
  4014a2:	a1 38 20 40 00       	mov    eax,ds:0x402038
  4014a7:	89 42 18             	mov    DWORD PTR [edx+0x18],eax
  4014aa:	a1 3c 20 40 00       	mov    eax,ds:0x40203c
  4014af:	89 42 1c             	mov    DWORD PTR [edx+0x1c],eax
  4014b2:	c7 04 24 00 00 00 00 	mov    DWORD PTR [esp],0x0
  4014b9:	e8 4a 03 00 00       	call   401808 <_GetModuleHandleA@4>
  4014be:	c7 43 34 00 20 40 00 	mov    DWORD PTR [ebx+0x34],0x402000
  4014c5:	c7 43 38 44 20 40 00 	mov    DWORD PTR [ebx+0x38],0x402044
  4014cc:	c7 43 3c 00 60 40 00 	mov    DWORD PTR [ebx+0x3c],0x406000
  4014d3:	c7 43 40 10 61 40 00 	mov    DWORD PTR [ebx+0x40],0x406110
  4014da:	c7 83 94 00 00 00 10 	mov    DWORD PTR [ebx+0x94],0x403310
  4014e1:	33 40 00 
  4014e4:	83 ec 04             	sub    esp,0x4
  4014e7:	89 43 7c             	mov    DWORD PTR [ebx+0x7c],eax
  4014ea:	c7 83 98 00 00 00 10 	mov    DWORD PTR [ebx+0x98],0x403310
  4014f1:	33 40 00 
  4014f4:	c7 83 9c 00 00 00 00 	mov    DWORD PTR [ebx+0x9c],0x400000
  4014fb:	00 40 00 
  4014fe:	c7 04 24 00 00 00 00 	mov    DWORD PTR [esp],0x0
  401505:	e8 76 02 00 00       	call   401780 <__pei386_runtime_relocator>
  40150a:	b8 01 00 00 00       	mov    eax,0x1
  40150f:	8b 5d fc             	mov    ebx,DWORD PTR [ebp-0x4]
  401512:	c9                   	leave  
  401513:	c2 08 00             	ret    0x8
  401516:	8b 88 a4 00 00 00    	mov    ecx,DWORD PTR [eax+0xa4]
  40151c:	85 c0                	test   eax,eax
  40151e:	8b 15 8c 70 40 00    	mov    edx,DWORD PTR ds:0x40708c
  401524:	c7 40 04 a8 00 00 00 	mov    DWORD PTR [eax+0x4],0xa8
  40152b:	c7 40 08 ef 03 00 00 	mov    DWORD PTR [eax+0x8],0x3ef
  401532:	c7 40 0c 23 00 00 00 	mov    DWORD PTR [eax+0xc],0x23
  401539:	89 0a                	mov    DWORD PTR [edx],ecx
  40153b:	8b 55 00             	mov    edx,DWORD PTR [ebp+0x0]
  40153e:	8b 4d 08             	mov    ecx,DWORD PTR [ebp+0x8]
  401541:	c7 80 80 00 00 00 00 	mov    DWORD PTR [eax+0x80],0x0
  401548:	00 00 00 
  40154b:	c7 80 84 00 00 00 1f 	mov    DWORD PTR [eax+0x84],0x11f
  401552:	01 00 00 
  401555:	c7 40 2c 20 18 40 00 	mov    DWORD PTR [eax+0x2c],0x401820
  40155c:	c7 40 30 2c 18 40 00 	mov    DWORD PTR [eax+0x30],0x40182c
  401563:	c7 40 14 1c 60 40 00 	mov    DWORD PTR [eax+0x14],0x40601c
  40156a:	89 48 28             	mov    DWORD PTR [eax+0x28],ecx
  40156d:	c7 40 48 f0 12 40 00 	mov    DWORD PTR [eax+0x48],0x4012f0
  401574:	c7 40 4c 00 13 40 00 	mov    DWORD PTR [eax+0x4c],0x401300
  40157b:	c7 40 50 10 13 40 00 	mov    DWORD PTR [eax+0x50],0x401310
  401582:	c7 40 54 20 13 40 00 	mov    DWORD PTR [eax+0x54],0x401320
  401589:	c7 40 24 18 60 40 00 	mov    DWORD PTR [eax+0x24],0x406018
  401590:	89 10                	mov    DWORD PTR [eax],edx
  401592:	c7 40 18 a8 17 40 00 	mov    DWORD PTR [eax+0x18],0x4017a8
  401599:	c7 40 1c a0 17 40 00 	mov    DWORD PTR [eax+0x1c],0x4017a0
  4015a0:	c7 40 20 b8 17 40 00 	mov    DWORD PTR [eax+0x20],0x4017b8
  4015a7:	c7 40 44 a8 12 40 00 	mov    DWORD PTR [eax+0x44],0x4012a8
  4015ae:	c7 80 90 00 00 00 b0 	mov    DWORD PTR [eax+0x90],0x4017b0
  4015b5:	17 40 00 
  4015b8:	0f 84 f4 fe ff ff    	je     4014b2 <__cygwin_crt0_common@8+0x182>
  4015be:	8b 50 78             	mov    edx,DWORD PTR [eax+0x78]
  4015c1:	89 c3                	mov    ebx,eax
  4015c3:	85 d2                	test   edx,edx
  4015c5:	0f 85 31 fe ff ff    	jne    4013fc <__cygwin_crt0_common@8+0xcc>
  4015cb:	e9 e2 fe ff ff       	jmp    4014b2 <__cygwin_crt0_common@8+0x182>
  4015d0:	8b 42 1c             	mov    eax,DWORD PTR [edx+0x1c]
  4015d3:	a3 3c 20 40 00       	mov    ds:0x40203c,eax
  4015d8:	e9 96 fe ff ff       	jmp    401473 <__cygwin_crt0_common@8+0x143>
  4015dd:	8d 76 00             	lea    esi,[esi+0x0]
  4015e0:	8b 42 18             	mov    eax,DWORD PTR [edx+0x18]
  4015e3:	a3 38 20 40 00       	mov    ds:0x402038,eax
  4015e8:	e9 79 fe ff ff       	jmp    401466 <__cygwin_crt0_common@8+0x136>
  4015ed:	8d 76 00             	lea    esi,[esi+0x0]
  4015f0:	8b 42 14             	mov    eax,DWORD PTR [edx+0x14]
  4015f3:	a3 34 20 40 00       	mov    ds:0x402034,eax
  4015f8:	e9 5b fe ff ff       	jmp    401458 <__cygwin_crt0_common@8+0x128>
  4015fd:	8d 76 00             	lea    esi,[esi+0x0]
  401600:	8b 42 10             	mov    eax,DWORD PTR [edx+0x10]
  401603:	a3 30 20 40 00       	mov    ds:0x402030,eax
  401608:	e9 3e fe ff ff       	jmp    40144b <__cygwin_crt0_common@8+0x11b>
  40160d:	8d 76 00             	lea    esi,[esi+0x0]
  401610:	8b 42 0c             	mov    eax,DWORD PTR [edx+0xc]
  401613:	a3 2c 20 40 00       	mov    ds:0x40202c,eax
  401618:	e9 21 fe ff ff       	jmp    40143e <__cygwin_crt0_common@8+0x10e>
  40161d:	8d 76 00             	lea    esi,[esi+0x0]
  401620:	8b 42 08             	mov    eax,DWORD PTR [edx+0x8]
  401623:	a3 28 20 40 00       	mov    ds:0x402028,eax
  401628:	e9 04 fe ff ff       	jmp    401431 <__cygwin_crt0_common@8+0x101>
  40162d:	8d 76 00             	lea    esi,[esi+0x0]
  401630:	8b 42 04             	mov    eax,DWORD PTR [edx+0x4]
  401633:	a3 24 20 40 00       	mov    ds:0x402024,eax
  401638:	e9 e7 fd ff ff       	jmp    401424 <__cygwin_crt0_common@8+0xf4>
  40163d:	8d 76 00             	lea    esi,[esi+0x0]
  401640:	8b 02                	mov    eax,DWORD PTR [edx]
  401642:	a3 20 20 40 00       	mov    ds:0x402020,eax
  401647:	e9 cb fd ff ff       	jmp    401417 <__cygwin_crt0_common@8+0xe7>
  40164c:	90                   	nop
  40164d:	90                   	nop
  40164e:	90                   	nop
  40164f:	90                   	nop

00401650 <___dllMain>:
  401650:	55                   	push   ebp
  401651:	89 e5                	mov    ebp,esp
  401653:	83 ec 18             	sub    esp,0x18
  401656:	a1 28 60 40 00       	mov    eax,ds:0x406028
  40165b:	89 44 24 08          	mov    DWORD PTR [esp+0x8],eax
  40165f:	a1 2c 60 40 00       	mov    eax,ds:0x40602c
  401664:	89 44 24 04          	mov    DWORD PTR [esp+0x4],eax
  401668:	a1 30 60 40 00       	mov    eax,ds:0x406030
  40166d:	89 04 24             	mov    DWORD PTR [esp],eax
  401670:	e8 fb 00 00 00       	call   401770 <_DllMain@12>
  401675:	83 ec 0c             	sub    esp,0xc
  401678:	c9                   	leave  
  401679:	c3                   	ret    
  40167a:	8d b6 00 00 00 00    	lea    esi,[esi+0x0]

00401680 <__cygwin_dll_entry@12>:
  401680:	55                   	push   ebp
  401681:	89 e5                	mov    ebp,esp
  401683:	83 ec 18             	sub    esp,0x18
  401686:	8b 45 0c             	mov    eax,DWORD PTR [ebp+0xc]
  401689:	8b 55 08             	mov    edx,DWORD PTR [ebp+0x8]
  40168c:	8b 4d 10             	mov    ecx,DWORD PTR [ebp+0x10]
  40168f:	83 f8 01             	cmp    eax,0x1
  401692:	74 7c                	je     401710 <__cygwin_dll_entry@12+0x90>
  401694:	72 3b                	jb     4016d1 <__cygwin_dll_entry@12+0x51>
  401696:	83 f8 02             	cmp    eax,0x2
  401699:	74 1a                	je     4016b5 <__cygwin_dll_entry@12+0x35>
  40169b:	83 f8 03             	cmp    eax,0x3
  40169e:	66 90                	xchg   ax,ax
  4016a0:	75 26                	jne    4016c8 <__cygwin_dll_entry@12+0x48>
  4016a2:	89 4d 10             	mov    DWORD PTR [ebp+0x10],ecx
  4016a5:	c7 45 0c 03 00 00 00 	mov    DWORD PTR [ebp+0xc],0x3
  4016ac:	89 55 08             	mov    DWORD PTR [ebp+0x8],edx
  4016af:	c9                   	leave  
  4016b0:	e9 bb 00 00 00       	jmp    401770 <_DllMain@12>
  4016b5:	89 4d 10             	mov    DWORD PTR [ebp+0x10],ecx
  4016b8:	c7 45 0c 02 00 00 00 	mov    DWORD PTR [ebp+0xc],0x2
  4016bf:	89 55 08             	mov    DWORD PTR [ebp+0x8],edx
  4016c2:	c9                   	leave  
  4016c3:	e9 a8 00 00 00       	jmp    401770 <_DllMain@12>
  4016c8:	b8 01 00 00 00       	mov    eax,0x1
  4016cd:	c9                   	leave  
  4016ce:	c2 0c 00             	ret    0xc
  4016d1:	89 4c 24 08          	mov    DWORD PTR [esp+0x8],ecx
  4016d5:	c7 44 24 04 00 00 00 	mov    DWORD PTR [esp+0x4],0x0
  4016dc:	00 
  4016dd:	89 14 24             	mov    DWORD PTR [esp],edx
  4016e0:	e8 8b 00 00 00       	call   401770 <_DllMain@12>
  4016e5:	83 ec 0c             	sub    esp,0xc
  4016e8:	85 c0                	test   eax,eax
  4016ea:	74 e1                	je     4016cd <__cygwin_dll_entry@12+0x4d>
  4016ec:	8b 15 24 60 40 00    	mov    edx,DWORD PTR ds:0x406024
  4016f2:	89 45 f4             	mov    DWORD PTR [ebp-0xc],eax
  4016f5:	89 14 24             	mov    DWORD PTR [esp],edx
  4016f8:	e8 93 00 00 00       	call   401790 <_cygwin_detach_dll>
  4016fd:	8b 45 f4             	mov    eax,DWORD PTR [ebp-0xc]
  401700:	c7 05 24 60 40 00 ff 	mov    DWORD PTR ds:0x406024,0xffffffff
  401707:	ff ff ff 
  40170a:	eb c1                	jmp    4016cd <__cygwin_dll_entry@12+0x4d>
  40170c:	8d 74 26 00          	lea    esi,[esi+eiz*1+0x0]
  401710:	31 c0                	xor    eax,eax
  401712:	85 c9                	test   ecx,ecx
  401714:	0f 94 c0             	sete   al
  401717:	c7 44 24 04 50 16 40 	mov    DWORD PTR [esp+0x4],0x401650
  40171e:	00 
  40171f:	89 14 24             	mov    DWORD PTR [esp],edx
  401722:	89 15 30 60 40 00    	mov    DWORD PTR ds:0x406030,edx
  401728:	c7 05 2c 60 40 00 01 	mov    DWORD PTR ds:0x40602c,0x1
  40172f:	00 00 00 
  401732:	89 0d 28 60 40 00    	mov    DWORD PTR ds:0x406028,ecx
  401738:	a3 20 60 40 00       	mov    ds:0x406020,eax
  40173d:	e8 7e 00 00 00       	call   4017c0 <_cygwin_attach_dll>
  401742:	83 f8 ff             	cmp    eax,0xffffffff
  401745:	a3 24 60 40 00       	mov    ds:0x406024,eax
  40174a:	0f 95 c0             	setne  al
  40174d:	0f b6 c0             	movzx  eax,al
  401750:	c9                   	leave  
  401751:	c2 0c 00             	ret    0xc
  401754:	8d b6 00 00 00 00    	lea    esi,[esi+0x0]
  40175a:	8d bf 00 00 00 00    	lea    edi,[edi+0x0]

00401760 <__cygwin_noncygwin_dll_entry@12>:
  401760:	55                   	push   ebp
  401761:	89 e5                	mov    ebp,esp
  401763:	c9                   	leave  
  401764:	e9 17 ff ff ff       	jmp    401680 <__cygwin_dll_entry@12>
  401769:	90                   	nop
  40176a:	90                   	nop
  40176b:	90                   	nop
  40176c:	90                   	nop
  40176d:	90                   	nop
  40176e:	90                   	nop
  40176f:	90                   	nop

00401770 <_DllMain@12>:
  401770:	b8 01 00 00 00       	mov    eax,0x1
  401775:	c2 0c 00             	ret    0xc
  401778:	90                   	nop
  401779:	90                   	nop
  40177a:	90                   	nop
  40177b:	90                   	nop
  40177c:	90                   	nop
  40177d:	90                   	nop
  40177e:	90                   	nop
  40177f:	90                   	nop

00401780 <__pei386_runtime_relocator>:
  401780:	f3 c3                	repz ret 
  401782:	90                   	nop
  401783:	90                   	nop
  401784:	90                   	nop
  401785:	90                   	nop
  401786:	90                   	nop
  401787:	90                   	nop
  401788:	90                   	nop
  401789:	90                   	nop
  40178a:	90                   	nop
  40178b:	90                   	nop
  40178c:	90                   	nop
  40178d:	90                   	nop
  40178e:	90                   	nop
  40178f:	90                   	nop

00401790 <_cygwin_detach_dll>:
  401790:	ff 25 94 70 40 00    	jmp    DWORD PTR ds:0x407094
  401796:	90                   	nop
  401797:	90                   	nop

00401798 <_cygwin_internal>:
  401798:	ff 25 98 70 40 00    	jmp    DWORD PTR ds:0x407098
  40179e:	90                   	nop
  40179f:	90                   	nop

004017a0 <_free>:
  4017a0:	ff 25 a0 70 40 00    	jmp    DWORD PTR ds:0x4070a0
  4017a6:	90                   	nop
  4017a7:	90                   	nop

004017a8 <_malloc>:
  4017a8:	ff 25 a4 70 40 00    	jmp    DWORD PTR ds:0x4070a4
  4017ae:	90                   	nop
  4017af:	90                   	nop

004017b0 <_posix_memalign>:
  4017b0:	ff 25 a8 70 40 00    	jmp    DWORD PTR ds:0x4070a8
  4017b6:	90                   	nop
  4017b7:	90                   	nop

004017b8 <_realloc>:
  4017b8:	ff 25 b0 70 40 00    	jmp    DWORD PTR ds:0x4070b0
  4017be:	90                   	nop
  4017bf:	90                   	nop

004017c0 <_cygwin_attach_dll>:
  4017c0:	55                   	push   ebp
  4017c1:	89 e5                	mov    ebp,esp
  4017c3:	53                   	push   ebx
  4017c4:	83 ec 14             	sub    esp,0x14
  4017c7:	8b 45 0c             	mov    eax,DWORD PTR [ebp+0xc]
  4017ca:	c7 44 24 04 40 60 40 	mov    DWORD PTR [esp+0x4],0x406040
  4017d1:	00 
  4017d2:	8b 5d 08             	mov    ebx,DWORD PTR [ebp+0x8]
  4017d5:	89 04 24             	mov    DWORD PTR [esp],eax
  4017d8:	e8 53 fb ff ff       	call   401330 <__cygwin_crt0_common@8>
  4017dd:	89 5d 08             	mov    DWORD PTR [ebp+0x8],ebx
  4017e0:	8b 5d fc             	mov    ebx,DWORD PTR [ebp-0x4]
  4017e3:	c7 45 0c 40 60 40 00 	mov    DWORD PTR [ebp+0xc],0x406040
  4017ea:	83 ec 08             	sub    esp,0x8
  4017ed:	c9                   	leave  
  4017ee:	e9 0d 00 00 00       	jmp    401800 <_dll_dllcrt0>
  4017f3:	90                   	nop
  4017f4:	90                   	nop
  4017f5:	90                   	nop
  4017f6:	90                   	nop
  4017f7:	90                   	nop
  4017f8:	90                   	nop
  4017f9:	90                   	nop
  4017fa:	90                   	nop
  4017fb:	90                   	nop
  4017fc:	90                   	nop
  4017fd:	90                   	nop
  4017fe:	90                   	nop
  4017ff:	90                   	nop

00401800 <_dll_dllcrt0>:
  401800:	ff 25 9c 70 40 00    	jmp    DWORD PTR ds:0x40709c
  401806:	90                   	nop
  401807:	90                   	nop

00401808 <_GetModuleHandleA@4>:
  401808:	ff 25 b8 70 40 00    	jmp    DWORD PTR ds:0x4070b8
  40180e:	90                   	nop
  40180f:	90                   	nop

00401810 <_register_frame_ctor>:
  401810:	55                   	push   ebp
  401811:	89 e5                	mov    ebp,esp
  401813:	5d                   	pop    ebp
  401814:	e9 77 f8 ff ff       	jmp    401090 <___gcc_register_frame>
  401819:	90                   	nop
  40181a:	90                   	nop
  40181b:	90                   	nop
  40181c:	90                   	nop
  40181d:	90                   	nop
  40181e:	90                   	nop
  40181f:	90                   	nop

00401820 <__CTOR_LIST__>:
  401820:	ff                   	(bad)  
  401821:	ff                   	(bad)  
  401822:	ff                   	(bad)  
  401823:	ff 10                	call   DWORD PTR [eax]

00401824 <.ctors.65535>:
  401824:	10 18                	adc    BYTE PTR [eax],bl
  401826:	40                   	inc    eax
  401827:	00 00                	add    BYTE PTR [eax],al
  401829:	00 00                	add    BYTE PTR [eax],al
	...

0040182c <__DTOR_LIST__>:
  40182c:	ff                   	(bad)  
  40182d:	ff                   	(bad)  
  40182e:	ff                   	(bad)  
  40182f:	ff 00                	inc    DWORD PTR [eax]
  401831:	00 00                	add    BYTE PTR [eax],al
	...

Disassembly of section .rdata:

00403000 <.rdata>:
  403000:	63 79 67             	arpl   WORD PTR [ecx+0x67],di
  403003:	67 63 63 5f          	arpl   WORD PTR [bp+di+0x5f],sp
  403007:	73 2d                	jae    403036 <.rdata+0x36>
  403009:	31 2e                	xor    DWORD PTR [esi],ebp
  40300b:	64 6c                	fs ins BYTE PTR es:[edi],dx
  40300d:	6c                   	ins    BYTE PTR es:[edi],dx
  40300e:	00 5f 5f             	add    BYTE PTR [edi+0x5f],bl
  403011:	72 65                	jb     403078 <.rdata+0x18>
  403013:	67 69 73 74 65 72 5f 	imul   esi,DWORD PTR [bp+di+0x74],0x665f7265
  40301a:	66 
  40301b:	72 61                	jb     40307e <.rdata+0x1e>
  40301d:	6d                   	ins    DWORD PTR es:[edi],dx
  40301e:	65 5f                	gs pop edi
  403020:	69 6e 66 6f 00 5f 5f 	imul   ebp,DWORD PTR [esi+0x66],0x5f5f006f
  403027:	64 65 72 65          	fs gs jb 403090 <.rdata$zzz+0xc>
  40302b:	67 69 73 74 65 72 5f 	imul   esi,DWORD PTR [bp+di+0x74],0x665f7265
  403032:	66 
  403033:	72 61                	jb     403096 <.rdata$zzz+0x12>
  403035:	6d                   	ins    DWORD PTR es:[edi],dx
  403036:	65 5f                	gs pop edi
  403038:	69 6e 66 6f 00 63 79 	imul   ebp,DWORD PTR [esi+0x66],0x7963006f
  40303f:	67 67 63 6a 2d       	addr16 arpl WORD PTR [bp+si+0x2d],bp
  403044:	31 35 2e 64 6c 6c    	xor    DWORD PTR ds:0x6c6c642e,esi
  40304a:	00 5f 4a             	add    BYTE PTR [edi+0x4a],bl
  40304d:	76 5f                	jbe    4030ae <.rdata$zzz+0x2a>
  40304f:	52                   	push   edx
  403050:	65 67 69 73 74 65 72 	imul   esi,DWORD PTR gs:[bp+di+0x74],0x6c437265
  403057:	43 6c 
  403059:	61                   	popa   
  40305a:	73 73                	jae    4030cf <.rdata$zzz+0x3>
  40305c:	65 73 00             	gs jae 40305f <.rdata+0x5f>
	...

00403060 <.rdata>:
  403060:	48                   	dec    eax
  403061:	65 6c                	gs ins BYTE PTR es:[edi],dx
  403063:	6c                   	ins    BYTE PTR es:[edi],dx
  403064:	6f                   	outs   dx,DWORD PTR ds:[esi]
  403065:	20 57 6f             	and    BYTE PTR [edi+0x6f],dl
  403068:	72 6c                	jb     4030d6 <.rdata$zzz+0xa>
  40306a:	64 21 00             	and    DWORD PTR fs:[eax],eax
  40306d:	25 64 2c 20 25       	and    eax,0x25202c64
  403072:	66 2c 20             	data16 sub al,0x20
  403075:	25 73 0a 00 00       	and    eax,0xa73
  40307a:	00 00                	add    BYTE PTR [eax],al
  40307c:	33 33                	xor    esi,DWORD PTR [ebx]
  40307e:	13 40 00             	adc    eax,DWORD PTR [eax+0x0]
  403081:	00 00                	add    BYTE PTR [eax],al
	...

00403084 <.rdata$zzz>:
  403084:	47                   	inc    edi
  403085:	43                   	inc    ebx
  403086:	43                   	inc    ebx
  403087:	3a 20                	cmp    ah,BYTE PTR [eax]
  403089:	28 47 4e             	sub    BYTE PTR [edi+0x4e],al
  40308c:	55                   	push   ebp
  40308d:	29 20                	sub    DWORD PTR [eax],esp
  40308f:	34 2e                	xor    al,0x2e
  403091:	38 2e                	cmp    BYTE PTR [esi],ch
  403093:	33 20                	xor    esp,DWORD PTR [eax]
  403095:	32 30                	xor    dh,BYTE PTR [eax]
  403097:	31 34 30             	xor    DWORD PTR [eax+esi*1],esi
  40309a:	35 32 32 20 28       	xor    eax,0x28203232
  40309f:	46                   	inc    esi
  4030a0:	65 64 6f             	gs outs dx,DWORD PTR fs:[esi]
  4030a3:	72 61                	jb     403106 <.rdata$zzz+0x26>
  4030a5:	20 43 79             	and    BYTE PTR [ebx+0x79],al
  4030a8:	67 77 69             	addr16 ja 403114 <.rdata$zzz>
  4030ab:	6e                   	outs   dx,BYTE PTR ds:[esi]
  4030ac:	20 34 2e             	and    BYTE PTR [esi+ebp*1],dh
  4030af:	38 2e                	cmp    BYTE PTR [esi],ch
  4030b1:	33 2d 36 29 00 00    	xor    ebp,DWORD PTR ds:0x2936
	...

004030b8 <.rdata$zzz>:
  4030b8:	47                   	inc    edi
  4030b9:	43                   	inc    ebx
  4030ba:	43                   	inc    ebx
  4030bb:	3a 20                	cmp    ah,BYTE PTR [eax]
  4030bd:	28 47 4e             	sub    BYTE PTR [edi+0x4e],al
  4030c0:	55                   	push   ebp
  4030c1:	29 20                	sub    DWORD PTR [eax],esp
  4030c3:	34 2e                	xor    al,0x2e
  4030c5:	39 2e                	cmp    DWORD PTR [esi],ebp
  4030c7:	32 00                	xor    al,BYTE PTR [eax]
  4030c9:	00 00                	add    BYTE PTR [eax],al
	...

004030cc <.rdata$zzz>:
  4030cc:	47                   	inc    edi
  4030cd:	43                   	inc    ebx
  4030ce:	43                   	inc    ebx
  4030cf:	3a 20                	cmp    ah,BYTE PTR [eax]
  4030d1:	28 47 4e             	sub    BYTE PTR [edi+0x4e],al
  4030d4:	55                   	push   ebp
  4030d5:	29 20                	sub    DWORD PTR [eax],esp
  4030d7:	34 2e                	xor    al,0x2e
  4030d9:	39 2e                	cmp    DWORD PTR [esi],ebp
  4030db:	32 00                	xor    al,BYTE PTR [eax]
  4030dd:	00 00                	add    BYTE PTR [eax],al
	...

004030e0 <.rdata$zzz>:
  4030e0:	47                   	inc    edi
  4030e1:	43                   	inc    ebx
  4030e2:	43                   	inc    ebx
  4030e3:	3a 20                	cmp    ah,BYTE PTR [eax]
  4030e5:	28 47 4e             	sub    BYTE PTR [edi+0x4e],al
  4030e8:	55                   	push   ebp
  4030e9:	29 20                	sub    DWORD PTR [eax],esp
  4030eb:	34 2e                	xor    al,0x2e
  4030ed:	38 2e                	cmp    BYTE PTR [esi],ch
  4030ef:	33 20                	xor    esp,DWORD PTR [eax]
  4030f1:	32 30                	xor    dh,BYTE PTR [eax]
  4030f3:	31 34 30             	xor    DWORD PTR [eax+esi*1],esi
  4030f6:	35 32 32 20 28       	xor    eax,0x28203232
  4030fb:	46                   	inc    esi
  4030fc:	65 64 6f             	gs outs dx,DWORD PTR fs:[esi]
  4030ff:	72 61                	jb     403162 <.rdata$zzz+0x1a>
  403101:	20 43 79             	and    BYTE PTR [ebx+0x79],al
  403104:	67 77 69             	addr16 ja 403170 <.rdata$zzz+0x28>
  403107:	6e                   	outs   dx,BYTE PTR ds:[esi]
  403108:	20 34 2e             	and    BYTE PTR [esi+ebp*1],dh
  40310b:	38 2e                	cmp    BYTE PTR [esi],ch
  40310d:	33 2d 36 29 00 00    	xor    ebp,DWORD PTR ds:0x2936
	...

00403114 <.rdata$zzz>:
  403114:	47                   	inc    edi
  403115:	43                   	inc    ebx
  403116:	43                   	inc    ebx
  403117:	3a 20                	cmp    ah,BYTE PTR [eax]
  403119:	28 47 4e             	sub    BYTE PTR [edi+0x4e],al
  40311c:	55                   	push   ebp
  40311d:	29 20                	sub    DWORD PTR [eax],esp
  40311f:	34 2e                	xor    al,0x2e
  403121:	38 2e                	cmp    BYTE PTR [esi],ch
  403123:	33 20                	xor    esp,DWORD PTR [eax]
  403125:	32 30                	xor    dh,BYTE PTR [eax]
  403127:	31 34 30             	xor    DWORD PTR [eax+esi*1],esi
  40312a:	35 32 32 20 28       	xor    eax,0x28203232
  40312f:	46                   	inc    esi
  403130:	65 64 6f             	gs outs dx,DWORD PTR fs:[esi]
  403133:	72 61                	jb     403196 <.rdata$zzz+0x1a>
  403135:	20 43 79             	and    BYTE PTR [ebx+0x79],al
  403138:	67 77 69             	addr16 ja 4031a4 <.rdata$zzz+0x28>
  40313b:	6e                   	outs   dx,BYTE PTR ds:[esi]
  40313c:	20 34 2e             	and    BYTE PTR [esi+ebp*1],dh
  40313f:	38 2e                	cmp    BYTE PTR [esi],ch
  403141:	33 2d 36 29 00 00    	xor    ebp,DWORD PTR ds:0x2936
	...

00403148 <.rdata$zzz>:
  403148:	47                   	inc    edi
  403149:	43                   	inc    ebx
  40314a:	43                   	inc    ebx
  40314b:	3a 20                	cmp    ah,BYTE PTR [eax]
  40314d:	28 47 4e             	sub    BYTE PTR [edi+0x4e],al
  403150:	55                   	push   ebp
  403151:	29 20                	sub    DWORD PTR [eax],esp
  403153:	34 2e                	xor    al,0x2e
  403155:	38 2e                	cmp    BYTE PTR [esi],ch
  403157:	33 20                	xor    esp,DWORD PTR [eax]
  403159:	32 30                	xor    dh,BYTE PTR [eax]
  40315b:	31 34 30             	xor    DWORD PTR [eax+esi*1],esi
  40315e:	35 32 32 20 28       	xor    eax,0x28203232
  403163:	46                   	inc    esi
  403164:	65 64 6f             	gs outs dx,DWORD PTR fs:[esi]
  403167:	72 61                	jb     4031ca <.rdata$zzz+0x1a>
  403169:	20 43 79             	and    BYTE PTR [ebx+0x79],al
  40316c:	67 77 69             	addr16 ja 4031d8 <.rdata$zzz+0x28>
  40316f:	6e                   	outs   dx,BYTE PTR ds:[esi]
  403170:	20 34 2e             	and    BYTE PTR [esi+ebp*1],dh
  403173:	38 2e                	cmp    BYTE PTR [esi],ch
  403175:	33 2d 36 29 00 00    	xor    ebp,DWORD PTR ds:0x2936
	...

0040317c <.rdata$zzz>:
  40317c:	47                   	inc    edi
  40317d:	43                   	inc    ebx
  40317e:	43                   	inc    ebx
  40317f:	3a 20                	cmp    ah,BYTE PTR [eax]
  403181:	28 47 4e             	sub    BYTE PTR [edi+0x4e],al
  403184:	55                   	push   ebp
  403185:	29 20                	sub    DWORD PTR [eax],esp
  403187:	34 2e                	xor    al,0x2e
  403189:	38 2e                	cmp    BYTE PTR [esi],ch
  40318b:	33 20                	xor    esp,DWORD PTR [eax]
  40318d:	32 30                	xor    dh,BYTE PTR [eax]
  40318f:	31 34 30             	xor    DWORD PTR [eax+esi*1],esi
  403192:	35 32 32 20 28       	xor    eax,0x28203232
  403197:	46                   	inc    esi
  403198:	65 64 6f             	gs outs dx,DWORD PTR fs:[esi]
  40319b:	72 61                	jb     4031fe <.rdata$zzz+0x1a>
  40319d:	20 43 79             	and    BYTE PTR [ebx+0x79],al
  4031a0:	67 77 69             	addr16 ja 40320c <.rdata$zzz+0x28>
  4031a3:	6e                   	outs   dx,BYTE PTR ds:[esi]
  4031a4:	20 34 2e             	and    BYTE PTR [esi+ebp*1],dh
  4031a7:	38 2e                	cmp    BYTE PTR [esi],ch
  4031a9:	33 2d 36 29 00 00    	xor    ebp,DWORD PTR ds:0x2936
	...

004031b0 <.rdata$zzz>:
  4031b0:	47                   	inc    edi
  4031b1:	43                   	inc    ebx
  4031b2:	43                   	inc    ebx
  4031b3:	3a 20                	cmp    ah,BYTE PTR [eax]
  4031b5:	28 47 4e             	sub    BYTE PTR [edi+0x4e],al
  4031b8:	55                   	push   ebp
  4031b9:	29 20                	sub    DWORD PTR [eax],esp
  4031bb:	34 2e                	xor    al,0x2e
  4031bd:	38 2e                	cmp    BYTE PTR [esi],ch
  4031bf:	33 20                	xor    esp,DWORD PTR [eax]
  4031c1:	32 30                	xor    dh,BYTE PTR [eax]
  4031c3:	31 34 30             	xor    DWORD PTR [eax+esi*1],esi
  4031c6:	35 32 32 20 28       	xor    eax,0x28203232
  4031cb:	46                   	inc    esi
  4031cc:	65 64 6f             	gs outs dx,DWORD PTR fs:[esi]
  4031cf:	72 61                	jb     403232 <.rdata$zzz+0x1a>
  4031d1:	20 43 79             	and    BYTE PTR [ebx+0x79],al
  4031d4:	67 77 69             	addr16 ja 403240 <.rdata$zzz+0x28>
  4031d7:	6e                   	outs   dx,BYTE PTR ds:[esi]
  4031d8:	20 34 2e             	and    BYTE PTR [esi+ebp*1],dh
  4031db:	38 2e                	cmp    BYTE PTR [esi],ch
  4031dd:	33 2d 36 29 00 00    	xor    ebp,DWORD PTR ds:0x2936
	...

004031e4 <.rdata$zzz>:
  4031e4:	47                   	inc    edi
  4031e5:	43                   	inc    ebx
  4031e6:	43                   	inc    ebx
  4031e7:	3a 20                	cmp    ah,BYTE PTR [eax]
  4031e9:	28 47 4e             	sub    BYTE PTR [edi+0x4e],al
  4031ec:	55                   	push   ebp
  4031ed:	29 20                	sub    DWORD PTR [eax],esp
  4031ef:	34 2e                	xor    al,0x2e
  4031f1:	38 2e                	cmp    BYTE PTR [esi],ch
  4031f3:	33 20                	xor    esp,DWORD PTR [eax]
  4031f5:	32 30                	xor    dh,BYTE PTR [eax]
  4031f7:	31 34 30             	xor    DWORD PTR [eax+esi*1],esi
  4031fa:	35 32 32 20 28       	xor    eax,0x28203232
  4031ff:	46                   	inc    esi
  403200:	65 64 6f             	gs outs dx,DWORD PTR fs:[esi]
  403203:	72 61                	jb     403266 <.rdata$zzz+0x1a>
  403205:	20 43 79             	and    BYTE PTR [ebx+0x79],al
  403208:	67 77 69             	addr16 ja 403274 <.rdata$zzz+0x28>
  40320b:	6e                   	outs   dx,BYTE PTR ds:[esi]
  40320c:	20 34 2e             	and    BYTE PTR [esi+ebp*1],dh
  40320f:	38 2e                	cmp    BYTE PTR [esi],ch
  403211:	33 2d 36 29 00 00    	xor    ebp,DWORD PTR ds:0x2936
	...

00403218 <.rdata$zzz>:
  403218:	47                   	inc    edi
  403219:	43                   	inc    ebx
  40321a:	43                   	inc    ebx
  40321b:	3a 20                	cmp    ah,BYTE PTR [eax]
  40321d:	28 47 4e             	sub    BYTE PTR [edi+0x4e],al
  403220:	55                   	push   ebp
  403221:	29 20                	sub    DWORD PTR [eax],esp
  403223:	34 2e                	xor    al,0x2e
  403225:	38 2e                	cmp    BYTE PTR [esi],ch
  403227:	33 20                	xor    esp,DWORD PTR [eax]
  403229:	32 30                	xor    dh,BYTE PTR [eax]
  40322b:	31 34 30             	xor    DWORD PTR [eax+esi*1],esi
  40322e:	35 32 32 20 28       	xor    eax,0x28203232
  403233:	46                   	inc    esi
  403234:	65 64 6f             	gs outs dx,DWORD PTR fs:[esi]
  403237:	72 61                	jb     40329a <.rdata$zzz+0x1a>
  403239:	20 43 79             	and    BYTE PTR [ebx+0x79],al
  40323c:	67 77 69             	addr16 ja 4032a8 <.rdata$zzz+0x28>
  40323f:	6e                   	outs   dx,BYTE PTR ds:[esi]
  403240:	20 34 2e             	and    BYTE PTR [esi+ebp*1],dh
  403243:	38 2e                	cmp    BYTE PTR [esi],ch
  403245:	33 2d 36 29 00 00    	xor    ebp,DWORD PTR ds:0x2936
	...

0040324c <.rdata$zzz>:
  40324c:	47                   	inc    edi
  40324d:	43                   	inc    ebx
  40324e:	43                   	inc    ebx
  40324f:	3a 20                	cmp    ah,BYTE PTR [eax]
  403251:	28 47 4e             	sub    BYTE PTR [edi+0x4e],al
  403254:	55                   	push   ebp
  403255:	29 20                	sub    DWORD PTR [eax],esp
  403257:	34 2e                	xor    al,0x2e
  403259:	38 2e                	cmp    BYTE PTR [esi],ch
  40325b:	33 20                	xor    esp,DWORD PTR [eax]
  40325d:	32 30                	xor    dh,BYTE PTR [eax]
  40325f:	31 34 30             	xor    DWORD PTR [eax+esi*1],esi
  403262:	35 32 32 20 28       	xor    eax,0x28203232
  403267:	46                   	inc    esi
  403268:	65 64 6f             	gs outs dx,DWORD PTR fs:[esi]
  40326b:	72 61                	jb     4032ce <.rdata$zzz+0x1a>
  40326d:	20 43 79             	and    BYTE PTR [ebx+0x79],al
  403270:	67 77 69             	addr16 ja 4032dc <.rdata$zzz+0x28>
  403273:	6e                   	outs   dx,BYTE PTR ds:[esi]
  403274:	20 34 2e             	and    BYTE PTR [esi+ebp*1],dh
  403277:	38 2e                	cmp    BYTE PTR [esi],ch
  403279:	33 2d 36 29 00 00    	xor    ebp,DWORD PTR ds:0x2936
	...

00403280 <.rdata$zzz>:
  403280:	47                   	inc    edi
  403281:	43                   	inc    ebx
  403282:	43                   	inc    ebx
  403283:	3a 20                	cmp    ah,BYTE PTR [eax]
  403285:	28 47 4e             	sub    BYTE PTR [edi+0x4e],al
  403288:	55                   	push   ebp
  403289:	29 20                	sub    DWORD PTR [eax],esp
  40328b:	34 2e                	xor    al,0x2e
  40328d:	38 2e                	cmp    BYTE PTR [esi],ch
  40328f:	33 20                	xor    esp,DWORD PTR [eax]
  403291:	32 30                	xor    dh,BYTE PTR [eax]
  403293:	31 34 30             	xor    DWORD PTR [eax+esi*1],esi
  403296:	35 32 32 20 28       	xor    eax,0x28203232
  40329b:	46                   	inc    esi
  40329c:	65 64 6f             	gs outs dx,DWORD PTR fs:[esi]
  40329f:	72 61                	jb     403302 <.rdata$zzz+0x6>
  4032a1:	20 43 79             	and    BYTE PTR [ebx+0x79],al
  4032a4:	67 77 69             	addr16 ja 403310 <__RUNTIME_PSEUDO_RELOC_LIST_END__>
  4032a7:	6e                   	outs   dx,BYTE PTR ds:[esi]
  4032a8:	20 34 2e             	and    BYTE PTR [esi+ebp*1],dh
  4032ab:	38 2e                	cmp    BYTE PTR [esi],ch
  4032ad:	33 2d 36 29 00 00    	xor    ebp,DWORD PTR ds:0x2936
	...

004032b4 <.rdata$zzz>:
  4032b4:	47                   	inc    edi
  4032b5:	43                   	inc    ebx
  4032b6:	43                   	inc    ebx
  4032b7:	3a 20                	cmp    ah,BYTE PTR [eax]
  4032b9:	28 47 4e             	sub    BYTE PTR [edi+0x4e],al
  4032bc:	55                   	push   ebp
  4032bd:	29 20                	sub    DWORD PTR [eax],esp
  4032bf:	34 2e                	xor    al,0x2e
  4032c1:	38 2e                	cmp    BYTE PTR [esi],ch
  4032c3:	33 20                	xor    esp,DWORD PTR [eax]
  4032c5:	32 30                	xor    dh,BYTE PTR [eax]
  4032c7:	31 34 30             	xor    DWORD PTR [eax+esi*1],esi
  4032ca:	35 32 32 20 28       	xor    eax,0x28203232
  4032cf:	46                   	inc    esi
  4032d0:	65 64 6f             	gs outs dx,DWORD PTR fs:[esi]
  4032d3:	72 61                	jb     403336 <__RUNTIME_PSEUDO_RELOC_LIST_END__+0x26>
  4032d5:	20 43 79             	and    BYTE PTR [ebx+0x79],al
  4032d8:	67 77 69             	addr16 ja 403344 <__RUNTIME_PSEUDO_RELOC_LIST_END__+0x34>
  4032db:	6e                   	outs   dx,BYTE PTR ds:[esi]
  4032dc:	20 34 2e             	and    BYTE PTR [esi+ebp*1],dh
  4032df:	38 2e                	cmp    BYTE PTR [esi],ch
  4032e1:	33 2d 36 29 00 00    	xor    ebp,DWORD PTR ds:0x2936
	...

004032e8 <.rdata$zzz>:
  4032e8:	47                   	inc    edi
  4032e9:	43                   	inc    ebx
  4032ea:	43                   	inc    ebx
  4032eb:	3a 20                	cmp    ah,BYTE PTR [eax]
  4032ed:	28 47 4e             	sub    BYTE PTR [edi+0x4e],al
  4032f0:	55                   	push   ebp
  4032f1:	29 20                	sub    DWORD PTR [eax],esp
  4032f3:	34 2e                	xor    al,0x2e
  4032f5:	39 2e                	cmp    DWORD PTR [esi],ebp
  4032f7:	32 00                	xor    al,BYTE PTR [eax]
  4032f9:	00 00                	add    BYTE PTR [eax],al
	...

004032fc <.rdata$zzz>:
  4032fc:	47                   	inc    edi
  4032fd:	43                   	inc    ebx
  4032fe:	43                   	inc    ebx
  4032ff:	3a 20                	cmp    ah,BYTE PTR [eax]
  403301:	28 47 4e             	sub    BYTE PTR [edi+0x4e],al
  403304:	55                   	push   ebp
  403305:	29 20                	sub    DWORD PTR [eax],esp
  403307:	34 2e                	xor    al,0x2e
  403309:	39 2e                	cmp    DWORD PTR [esi],ebp
  40330b:	32 00                	xor    al,BYTE PTR [eax]
  40330d:	00 00                	add    BYTE PTR [eax],al
	...

Disassembly of section .buildid:

00404000 <.buildid>:
	...
  40400c:	02 00                	add    al,BYTE PTR [eax]
  40400e:	00 00                	add    BYTE PTR [eax],al
  404010:	19 00                	sbb    DWORD PTR [eax],eax
  404012:	00 00                	add    BYTE PTR [eax],al
  404014:	1c 40                	sbb    al,0x40
  404016:	00 00                	add    BYTE PTR [eax],al
  404018:	1c 14                	sbb    al,0x14
  40401a:	00 00                	add    BYTE PTR [eax],al
  40401c:	52                   	push   edx
  40401d:	53                   	push   ebx
  40401e:	44                   	inc    esp
  40401f:	53                   	push   ebx
  404020:	dd 6f 7d             	(bad)  [edi+0x7d]
  404023:	5c                   	pop    esp
  404024:	43                   	inc    ebx
  404025:	3b 86 16 72 6c 0e    	cmp    eax,DWORD PTR [esi+0xe6c7216]
  40402b:	e3 2c                	jecxz  404059 <__RUNTIME_PSEUDO_RELOC_LIST__+0xd49>
  40402d:	70 f8                	jo     404027 <__RUNTIME_PSEUDO_RELOC_LIST__+0xd17>
  40402f:	69 01 00 00 00 00    	imul   eax,DWORD PTR [ecx],0x0

Disassembly of section .idata:

00407000 <__head_cygwin1_dll>:
  407000:	3c 70                	cmp    al,0x70
	...
  40700a:	00 00                	add    BYTE PTR [eax],al
  40700c:	e0 71                	loopne 40707f <.idata$4+0x3>
  40700e:	00 00                	add    BYTE PTR [eax],al
  407010:	80 70 00 00          	xor    BYTE PTR [eax+0x0],0x0

00407014 <__head_lib32_libkernel32_a>:
  407014:	74 70                	je     407086 <__imp____main+0x2>
	...
  40701e:	00 00                	add    BYTE PTR [eax],al
  407020:	f4                   	hlt    
  407021:	71 00                	jno    407023 <__head_lib32_libkernel32_a+0xf>
  407023:	00 b8 70 00 00 00    	add    BYTE PTR [eax+0x70],bh
	...

0040703c <.idata$4>:
  40703c:	c4 70 00             	les    esi,FWORD PTR [eax+0x0]
	...

00407040 <.idata$4>:
  407040:	d4 70                	aam    0x70
	...

00407044 <.idata$4>:
  407044:	e0 70                	loopne 4070b6 <.idata$5+0x2>
	...

00407048 <.idata$4>:
  407048:	f0 70 00             	lock jo 40704b <.idata$4+0x3>
	...

0040704c <.idata$4>:
  40704c:	00 71 00             	add    BYTE PTR [ecx+0x0],dh
	...

00407050 <.idata$4>:
  407050:	0c 71                	or     al,0x71
	...

00407054 <.idata$4>:
  407054:	20 71 00             	and    BYTE PTR [ecx+0x0],dh
	...

00407058 <.idata$4>:
  407058:	34 71                	xor    al,0x71
	...

0040705c <.idata$4>:
  40705c:	44                   	inc    esp
  40705d:	71 00                	jno    40705f <.idata$4+0x3>
	...

00407060 <.idata$4>:
  407060:	4c                   	dec    esp
  407061:	71 00                	jno    407063 <.idata$4+0x3>
	...

00407064 <.idata$4>:
  407064:	58                   	pop    eax
  407065:	71 00                	jno    407067 <.idata$4+0x3>
	...

00407068 <.idata$4>:
  407068:	6c                   	ins    BYTE PTR es:[edi],dx
  407069:	71 00                	jno    40706b <.idata$4+0x3>
	...

0040706c <.idata$4>:
  40706c:	78 71                	js     4070df <.idata$6+0xb>
	...

00407070 <.idata$4>:
  407070:	00 00                	add    BYTE PTR [eax],al
	...

00407074 <hname>:
  407074:	84 71 00             	test   BYTE PTR [ecx+0x0],dh
	...

00407078 <.idata$4>:
  407078:	98                   	cwde   
  407079:	71 00                	jno    40707b <.idata$4+0x3>
	...

0040707c <.idata$4>:
  40707c:	00 00                	add    BYTE PTR [eax],al
	...

00407080 <__IAT_start__>:
  407080:	c4 70 00             	les    esi,FWORD PTR [eax+0x0]
	...

00407084 <__imp____main>:
  407084:	d4 70                	aam    0x70
	...

00407088 <__imp___dll_crt0@0>:
  407088:	e0 70                	loopne 4070fa <__nm___impure_ptr+0xa>
	...

0040708c <__imp___impure_ptr>:
  40708c:	f0 70 00             	lock jo 40708f <__imp___impure_ptr+0x3>
	...

00407090 <__imp__calloc>:
  407090:	00 71 00             	add    BYTE PTR [ecx+0x0],dh
	...

00407094 <__imp__cygwin_detach_dll>:
  407094:	0c 71                	or     al,0x71
	...

00407098 <__imp__cygwin_internal>:
  407098:	20 71 00             	and    BYTE PTR [ecx+0x0],dh
	...

0040709c <__imp__dll_dllcrt0>:
  40709c:	34 71                	xor    al,0x71
	...

004070a0 <__imp__free>:
  4070a0:	44                   	inc    esp
  4070a1:	71 00                	jno    4070a3 <__imp__free+0x3>
	...

004070a4 <__imp__malloc>:
  4070a4:	4c                   	dec    esp
  4070a5:	71 00                	jno    4070a7 <__imp__malloc+0x3>
	...

004070a8 <__imp__posix_memalign>:
  4070a8:	58                   	pop    eax
  4070a9:	71 00                	jno    4070ab <__imp__posix_memalign+0x3>
	...

004070ac <__imp__printf>:
  4070ac:	6c                   	ins    BYTE PTR es:[edi],dx
  4070ad:	71 00                	jno    4070af <__imp__printf+0x3>
	...

004070b0 <__imp__realloc>:
  4070b0:	78 71                	js     407123 <.idata$6+0x3>
	...

004070b4 <.idata$5>:
  4070b4:	00 00                	add    BYTE PTR [eax],al
	...

004070b8 <__imp__GetModuleHandleA@4>:
  4070b8:	84 71 00             	test   BYTE PTR [ecx+0x0],dh
	...

004070bc <__imp__GetProcAddress@8>:
  4070bc:	98                   	cwde   
  4070bd:	71 00                	jno    4070bf <__imp__GetProcAddress@8+0x3>
	...

004070c0 <.idata$5>:
  4070c0:	00 00                	add    BYTE PTR [eax],al
	...

004070c4 <__IAT_end__>:
  4070c4:	19 00                	sbb    DWORD PTR [eax],eax
  4070c6:	5f                   	pop    edi
  4070c7:	5f                   	pop    edi
  4070c8:	63 78 61             	arpl   WORD PTR [eax+0x61],di
  4070cb:	5f                   	pop    edi
  4070cc:	61                   	popa   
  4070cd:	74 65                	je     407134 <.idata$6>
  4070cf:	78 69                	js     40713a <.idata$6+0x6>
  4070d1:	74 00                	je     4070d3 <__IAT_end__+0xf>
	...

004070d4 <.idata$6>:
  4070d4:	4c                   	dec    esp
  4070d5:	00 5f 5f             	add    BYTE PTR [edi+0x5f],bl
  4070d8:	6d                   	ins    DWORD PTR es:[edi],dx
  4070d9:	61                   	popa   
  4070da:	69 6e 00 00 00 00 c7 	imul   ebp,DWORD PTR [esi+0x0],0xc7000000

004070e0 <.idata$6>:
  4070e0:	c7 00 5f 64 6c 6c    	mov    DWORD PTR [eax],0x6c6c645f
  4070e6:	5f                   	pop    edi
  4070e7:	63 72 74             	arpl   WORD PTR [edx+0x74],si
  4070ea:	30 40 30             	xor    BYTE PTR [eax+0x30],al
  4070ed:	00 00                	add    BYTE PTR [eax],al
	...

004070f0 <__nm___impure_ptr>:
  4070f0:	80 01 5f             	add    BYTE PTR [ecx],0x5f
  4070f3:	69 6d 70 75 72 65 5f 	imul   ebp,DWORD PTR [ebp+0x70],0x5f657275
  4070fa:	70 74                	jo     407170 <.idata$6+0x4>
  4070fc:	72 00                	jb     4070fe <__nm___impure_ptr+0xe>
	...

00407100 <.idata$6>:
  407100:	f3 02 63 61          	repz add ah,BYTE PTR [ebx+0x61]
  407104:	6c                   	ins    BYTE PTR es:[edi],dx
  407105:	6c                   	ins    BYTE PTR es:[edi],dx
  407106:	6f                   	outs   dx,DWORD PTR ds:[esi]
  407107:	63 00                	arpl   WORD PTR [eax],ax
  407109:	00 00                	add    BYTE PTR [eax],al
	...

0040710c <.idata$6>:
  40710c:	5c                   	pop    esp
  40710d:	03 63 79             	add    esp,DWORD PTR [ebx+0x79]
  407110:	67 77 69             	addr16 ja 40717c <.idata$6+0x4>
  407113:	6e                   	outs   dx,BYTE PTR ds:[esi]
  407114:	5f                   	pop    edi
  407115:	64 65 74 61          	fs gs je 40717a <.idata$6+0x2>
  407119:	63 68 5f             	arpl   WORD PTR [eax+0x5f],bp
  40711c:	64 6c                	fs ins BYTE PTR es:[edi],dx
  40711e:	6c                   	ins    BYTE PTR es:[edi],dx
	...

00407120 <.idata$6>:
  407120:	5e                   	pop    esi
  407121:	03 63 79             	add    esp,DWORD PTR [ebx+0x79]
  407124:	67 77 69             	addr16 ja 407190 <.idata$6+0xc>
  407127:	6e                   	outs   dx,BYTE PTR ds:[esi]
  407128:	5f                   	pop    edi
  407129:	69 6e 74 65 72 6e 61 	imul   ebp,DWORD PTR [esi+0x74],0x616e7265
  407130:	6c                   	ins    BYTE PTR es:[edi],dx
  407131:	00 00                	add    BYTE PTR [eax],al
	...

00407134 <.idata$6>:
  407134:	73 03                	jae    407139 <.idata$6+0x5>
  407136:	64 6c                	fs ins BYTE PTR es:[edi],dx
  407138:	6c                   	ins    BYTE PTR es:[edi],dx
  407139:	5f                   	pop    edi
  40713a:	64 6c                	fs ins BYTE PTR es:[edi],dx
  40713c:	6c                   	ins    BYTE PTR es:[edi],dx
  40713d:	63 72 74             	arpl   WORD PTR [edx+0x74],si
  407140:	30 00                	xor    BYTE PTR [eax],al
	...

00407144 <.idata$6>:
  407144:	11 04 66             	adc    DWORD PTR [esi+eiz*2],eax
  407147:	72 65                	jb     4071ae <.idata$7+0x2>
  407149:	65 00 00             	add    BYTE PTR gs:[eax],al

0040714c <.idata$6>:
  40714c:	30 05 6d 61 6c 6c    	xor    BYTE PTR ds:0x6c6c616d,al
  407152:	6f                   	outs   dx,DWORD PTR ds:[esi]
  407153:	63 00                	arpl   WORD PTR [eax],ax
  407155:	00 00                	add    BYTE PTR [eax],al
	...

00407158 <.idata$6>:
  407158:	92                   	xchg   edx,eax
  407159:	05 70 6f 73 69       	add    eax,0x69736f70
  40715e:	78 5f                	js     4071bf <.idata$7+0x3>
  407160:	6d                   	ins    DWORD PTR es:[edi],dx
  407161:	65 6d                	gs ins DWORD PTR es:[edi],dx
  407163:	61                   	popa   
  407164:	6c                   	ins    BYTE PTR es:[edi],dx
  407165:	69 67 6e 00 00 00 00 	imul   esp,DWORD PTR [edi+0x6e],0x0

0040716c <.idata$6>:
  40716c:	b3 05                	mov    bl,0x5
  40716e:	70 72                	jo     4071e2 <_cygwin1_dll_iname+0x2>
  407170:	69 6e 74 66 00 00 00 	imul   ebp,DWORD PTR [esi+0x74],0x66
	...

00407178 <.idata$6>:
  407178:	38 06                	cmp    BYTE PTR [esi],al
  40717a:	72 65                	jb     4071e1 <_cygwin1_dll_iname+0x1>
  40717c:	61                   	popa   
  40717d:	6c                   	ins    BYTE PTR es:[edi],dx
  40717e:	6c                   	ins    BYTE PTR es:[edi],dx
  40717f:	6f                   	outs   dx,DWORD PTR ds:[esi]
  407180:	63 00                	arpl   WORD PTR [eax],ax
	...

00407184 <.idata$6>:
  407184:	15 02 47 65 74       	adc    eax,0x74654702
  407189:	4d                   	dec    ebp
  40718a:	6f                   	outs   dx,DWORD PTR ds:[esi]
  40718b:	64 75 6c             	fs jne 4071fa <__lib32_libkernel32_a_iname+0x6>
  40718e:	65 48                	gs dec eax
  407190:	61                   	popa   
  407191:	6e                   	outs   dx,BYTE PTR ds:[esi]
  407192:	64 6c                	fs ins BYTE PTR es:[edi],dx
  407194:	65 41                	gs inc ecx
	...

00407198 <.idata$6>:
  407198:	45                   	inc    ebp
  407199:	02 47 65             	add    al,BYTE PTR [edi+0x65]
  40719c:	74 50                	je     4071ee <.idata$7+0x2>
  40719e:	72 6f                	jb     40720f <__lib32_libkernel32_a_iname+0x1b>
  4071a0:	63 41 64             	arpl   WORD PTR [ecx+0x64],ax
  4071a3:	64 72 65             	fs jb  40720b <__lib32_libkernel32_a_iname+0x17>
  4071a6:	73 73                	jae    40721b <__lib32_libkernel32_a_iname+0x27>
  4071a8:	00 00                	add    BYTE PTR [eax],al
	...

004071ac <.idata$7>:
  4071ac:	00 70 00             	add    BYTE PTR [eax+0x0],dh
	...

004071b0 <.idata$7>:
  4071b0:	00 70 00             	add    BYTE PTR [eax+0x0],dh
	...

004071b4 <.idata$7>:
  4071b4:	00 70 00             	add    BYTE PTR [eax+0x0],dh
	...

004071b8 <.idata$7>:
  4071b8:	00 70 00             	add    BYTE PTR [eax+0x0],dh
	...

004071bc <.idata$7>:
  4071bc:	00 70 00             	add    BYTE PTR [eax+0x0],dh
	...

004071c0 <.idata$7>:
  4071c0:	00 70 00             	add    BYTE PTR [eax+0x0],dh
	...

004071c4 <.idata$7>:
  4071c4:	00 70 00             	add    BYTE PTR [eax+0x0],dh
	...

004071c8 <.idata$7>:
  4071c8:	00 70 00             	add    BYTE PTR [eax+0x0],dh
	...

004071cc <.idata$7>:
  4071cc:	00 70 00             	add    BYTE PTR [eax+0x0],dh
	...

004071d0 <.idata$7>:
  4071d0:	00 70 00             	add    BYTE PTR [eax+0x0],dh
	...

004071d4 <.idata$7>:
  4071d4:	00 70 00             	add    BYTE PTR [eax+0x0],dh
	...

004071d8 <.idata$7>:
  4071d8:	00 70 00             	add    BYTE PTR [eax+0x0],dh
	...

004071dc <.idata$7>:
  4071dc:	00 70 00             	add    BYTE PTR [eax+0x0],dh
	...

004071e0 <_cygwin1_dll_iname>:
  4071e0:	63 79 67             	arpl   WORD PTR [ecx+0x67],di
  4071e3:	77 69                	ja     40724e <__lib32_libkernel32_a_iname+0x5a>
  4071e5:	6e                   	outs   dx,BYTE PTR ds:[esi]
  4071e6:	31 2e                	xor    DWORD PTR [esi],ebp
  4071e8:	64 6c                	fs ins BYTE PTR es:[edi],dx
  4071ea:	6c                   	ins    BYTE PTR es:[edi],dx
	...

004071ec <.idata$7>:
  4071ec:	14 70                	adc    al,0x70
	...

004071f0 <.idata$7>:
  4071f0:	14 70                	adc    al,0x70
	...

004071f4 <__lib32_libkernel32_a_iname>:
  4071f4:	4b                   	dec    ebx
  4071f5:	45                   	inc    ebp
  4071f6:	52                   	push   edx
  4071f7:	4e                   	dec    esi
  4071f8:	45                   	inc    ebp
  4071f9:	4c                   	dec    esp
  4071fa:	33 32                	xor    esi,DWORD PTR [edx]
  4071fc:	2e 64 6c             	cs fs ins BYTE PTR es:[edi],dx
  4071ff:	6c                   	ins    BYTE PTR es:[edi],dx
  407200:	00 00                	add    BYTE PTR [eax],al
	...

Disassembly of section .rsrc:

00408000 <___crt_xc_end__>:
	...
  40800c:	00 00                	add    BYTE PTR [eax],al
  40800e:	01 00                	add    DWORD PTR [eax],eax
  408010:	18 00                	sbb    BYTE PTR [eax],al
  408012:	00 00                	add    BYTE PTR [eax],al
  408014:	18 00                	sbb    BYTE PTR [eax],al
  408016:	00 80 00 00 00 00    	add    BYTE PTR [eax+0x0],al
	...
  408024:	00 00                	add    BYTE PTR [eax],al
  408026:	01 00                	add    DWORD PTR [eax],eax
  408028:	01 00                	add    DWORD PTR [eax],eax
  40802a:	00 00                	add    BYTE PTR [eax],al
  40802c:	30 00                	xor    BYTE PTR [eax],al
  40802e:	00 80 00 00 00 00    	add    BYTE PTR [eax+0x0],al
	...
  40803c:	00 00                	add    BYTE PTR [eax],al
  40803e:	01 00                	add    DWORD PTR [eax],eax
  408040:	00 00                	add    BYTE PTR [eax],al
  408042:	00 00                	add    BYTE PTR [eax],al
  408044:	48                   	dec    eax
  408045:	00 00                	add    BYTE PTR [eax],al
  408047:	00 58 80             	add    BYTE PTR [eax-0x80],bl
  40804a:	00 00                	add    BYTE PTR [eax],al
  40804c:	8f 04 00             	pop    DWORD PTR [eax+eax*1]
	...
  408057:	00 3c 3f             	add    BYTE PTR [edi+edi*1],bh
  40805a:	78 6d                	js     4080c9 <___crt_xc_end__+0xc9>
  40805c:	6c                   	ins    BYTE PTR es:[edi],dx
  40805d:	20 76 65             	and    BYTE PTR [esi+0x65],dh
  408060:	72 73                	jb     4080d5 <___crt_xc_end__+0xd5>
  408062:	69 6f 6e 3d 22 31 2e 	imul   ebp,DWORD PTR [edi+0x6e],0x2e31223d
  408069:	30 22                	xor    BYTE PTR [edx],ah
  40806b:	20 65 6e             	and    BYTE PTR [ebp+0x6e],ah
  40806e:	63 6f 64             	arpl   WORD PTR [edi+0x64],bp
  408071:	69 6e 67 3d 22 55 54 	imul   ebp,DWORD PTR [esi+0x67],0x5455223d
  408078:	46                   	inc    esi
  408079:	2d 38 22 20 73       	sub    eax,0x73202238
  40807e:	74 61                	je     4080e1 <___crt_xc_end__+0xe1>
  408080:	6e                   	outs   dx,BYTE PTR ds:[esi]
  408081:	64 61                	fs popa 
  408083:	6c                   	ins    BYTE PTR es:[edi],dx
  408084:	6f                   	outs   dx,DWORD PTR ds:[esi]
  408085:	6e                   	outs   dx,BYTE PTR ds:[esi]
  408086:	65 3d 22 79 65 73    	gs cmp eax,0x73657922
  40808c:	22 3f                	and    bh,BYTE PTR [edi]
  40808e:	3e 0a 3c 61          	or     bh,BYTE PTR ds:[ecx+eiz*2]
  408092:	73 73                	jae    408107 <___crt_xc_end__+0x107>
  408094:	65 6d                	gs ins DWORD PTR es:[edi],dx
  408096:	62 6c 79 20          	bound  ebp,QWORD PTR [ecx+edi*2+0x20]
  40809a:	78 6d                	js     408109 <___crt_xc_end__+0x109>
  40809c:	6c                   	ins    BYTE PTR es:[edi],dx
  40809d:	6e                   	outs   dx,BYTE PTR ds:[esi]
  40809e:	73 3d                	jae    4080dd <___crt_xc_end__+0xdd>
  4080a0:	22 75 72             	and    dh,BYTE PTR [ebp+0x72]
  4080a3:	6e                   	outs   dx,BYTE PTR ds:[esi]
  4080a4:	3a 73 63             	cmp    dh,BYTE PTR [ebx+0x63]
  4080a7:	68 65 6d 61 73       	push   0x73616d65
  4080ac:	2d 6d 69 63 72       	sub    eax,0x7263696d
  4080b1:	6f                   	outs   dx,DWORD PTR ds:[esi]
  4080b2:	73 6f                	jae    408123 <___crt_xc_end__+0x123>
  4080b4:	66 74 2d             	data16 je 4080e4 <___crt_xc_end__+0xe4>
  4080b7:	63 6f 6d             	arpl   WORD PTR [edi+0x6d],bp
  4080ba:	3a 61 73             	cmp    ah,BYTE PTR [ecx+0x73]
  4080bd:	6d                   	ins    DWORD PTR es:[edi],dx
  4080be:	2e 76 31             	cs jbe 4080f2 <___crt_xc_end__+0xf2>
  4080c1:	22 20                	and    ah,BYTE PTR [eax]
  4080c3:	6d                   	ins    DWORD PTR es:[edi],dx
  4080c4:	61                   	popa   
  4080c5:	6e                   	outs   dx,BYTE PTR ds:[esi]
  4080c6:	69 66 65 73 74 56 65 	imul   esp,DWORD PTR [esi+0x65],0x65567473
  4080cd:	72 73                	jb     408142 <___crt_xc_end__+0x142>
  4080cf:	69 6f 6e 3d 22 31 2e 	imul   ebp,DWORD PTR [edi+0x6e],0x2e31223d
  4080d6:	30 22                	xor    BYTE PTR [edx],ah
  4080d8:	3e 0a 20             	or     ah,BYTE PTR ds:[eax]
  4080db:	20 3c 74             	and    BYTE PTR [esp+esi*2],bh
  4080de:	72 75                	jb     408155 <___crt_xc_end__+0x155>
  4080e0:	73 74                	jae    408156 <___crt_xc_end__+0x156>
  4080e2:	49                   	dec    ecx
  4080e3:	6e                   	outs   dx,BYTE PTR ds:[esi]
  4080e4:	66 6f                	outs   dx,WORD PTR ds:[esi]
  4080e6:	20 78 6d             	and    BYTE PTR [eax+0x6d],bh
  4080e9:	6c                   	ins    BYTE PTR es:[edi],dx
  4080ea:	6e                   	outs   dx,BYTE PTR ds:[esi]
  4080eb:	73 3d                	jae    40812a <___crt_xc_end__+0x12a>
  4080ed:	22 75 72             	and    dh,BYTE PTR [ebp+0x72]
  4080f0:	6e                   	outs   dx,BYTE PTR ds:[esi]
  4080f1:	3a 73 63             	cmp    dh,BYTE PTR [ebx+0x63]
  4080f4:	68 65 6d 61 73       	push   0x73616d65
  4080f9:	2d 6d 69 63 72       	sub    eax,0x7263696d
  4080fe:	6f                   	outs   dx,DWORD PTR ds:[esi]
  4080ff:	73 6f                	jae    408170 <___crt_xc_end__+0x170>
  408101:	66 74 2d             	data16 je 408131 <___crt_xc_end__+0x131>
  408104:	63 6f 6d             	arpl   WORD PTR [edi+0x6d],bp
  408107:	3a 61 73             	cmp    ah,BYTE PTR [ecx+0x73]
  40810a:	6d                   	ins    DWORD PTR es:[edi],dx
  40810b:	2e 76 33             	cs jbe 408141 <___crt_xc_end__+0x141>
  40810e:	22 3e                	and    bh,BYTE PTR [esi]
  408110:	0a 20                	or     ah,BYTE PTR [eax]
  408112:	20 20                	and    BYTE PTR [eax],ah
  408114:	20 3c 73             	and    BYTE PTR [ebx+esi*2],bh
  408117:	65 63 75 72          	arpl   WORD PTR gs:[ebp+0x72],si
  40811b:	69 74 79 3e 0a 20 20 	imul   esi,DWORD PTR [ecx+edi*2+0x3e],0x2020200a
  408122:	20 
  408123:	20 20                	and    BYTE PTR [eax],ah
  408125:	20 3c 72             	and    BYTE PTR [edx+esi*2],bh
  408128:	65 71 75             	gs jno 4081a0 <___crt_xc_end__+0x1a0>
  40812b:	65 73 74             	gs jae 4081a2 <___crt_xc_end__+0x1a2>
  40812e:	65 64 50             	gs fs push eax
  408131:	72 69                	jb     40819c <___crt_xc_end__+0x19c>
  408133:	76 69                	jbe    40819e <___crt_xc_end__+0x19e>
  408135:	6c                   	ins    BYTE PTR es:[edi],dx
  408136:	65 67 65 73 3e       	gs addr16 gs jae 408179 <___crt_xc_end__+0x179>
  40813b:	0a 20                	or     ah,BYTE PTR [eax]
  40813d:	20 20                	and    BYTE PTR [eax],ah
  40813f:	20 20                	and    BYTE PTR [eax],ah
  408141:	20 20                	and    BYTE PTR [eax],ah
  408143:	20 3c 72             	and    BYTE PTR [edx+esi*2],bh
  408146:	65 71 75             	gs jno 4081be <___crt_xc_end__+0x1be>
  408149:	65 73 74             	gs jae 4081c0 <___crt_xc_end__+0x1c0>
  40814c:	65 64 45             	gs fs inc ebp
  40814f:	78 65                	js     4081b6 <___crt_xc_end__+0x1b6>
  408151:	63 75 74             	arpl   WORD PTR [ebp+0x74],si
  408154:	69 6f 6e 4c 65 76 65 	imul   ebp,DWORD PTR [edi+0x6e],0x6576654c
  40815b:	6c                   	ins    BYTE PTR es:[edi],dx
  40815c:	20 6c 65 76          	and    BYTE PTR [ebp+eiz*2+0x76],ch
  408160:	65 6c                	gs ins BYTE PTR es:[edi],dx
  408162:	3d 22 61 73 49       	cmp    eax,0x49736122
  408167:	6e                   	outs   dx,BYTE PTR ds:[esi]
  408168:	76 6f                	jbe    4081d9 <___crt_xc_end__+0x1d9>
  40816a:	6b 65 72 22          	imul   esp,DWORD PTR [ebp+0x72],0x22
  40816e:	2f                   	das    
  40816f:	3e 0a 20             	or     ah,BYTE PTR ds:[eax]
  408172:	20 20                	and    BYTE PTR [eax],ah
  408174:	20 20                	and    BYTE PTR [eax],ah
  408176:	20 3c 2f             	and    BYTE PTR [edi+ebp*1],bh
  408179:	72 65                	jb     4081e0 <___crt_xc_end__+0x1e0>
  40817b:	71 75                	jno    4081f2 <___crt_xc_end__+0x1f2>
  40817d:	65 73 74             	gs jae 4081f4 <___crt_xc_end__+0x1f4>
  408180:	65 64 50             	gs fs push eax
  408183:	72 69                	jb     4081ee <___crt_xc_end__+0x1ee>
  408185:	76 69                	jbe    4081f0 <___crt_xc_end__+0x1f0>
  408187:	6c                   	ins    BYTE PTR es:[edi],dx
  408188:	65 67 65 73 3e       	gs addr16 gs jae 4081cb <___crt_xc_end__+0x1cb>
  40818d:	0a 20                	or     ah,BYTE PTR [eax]
  40818f:	20 20                	and    BYTE PTR [eax],ah
  408191:	20 3c 2f             	and    BYTE PTR [edi+ebp*1],bh
  408194:	73 65                	jae    4081fb <___crt_xc_end__+0x1fb>
  408196:	63 75 72             	arpl   WORD PTR [ebp+0x72],si
  408199:	69 74 79 3e 0a 20 20 	imul   esi,DWORD PTR [ecx+edi*2+0x3e],0x3c20200a
  4081a0:	3c 
  4081a1:	2f                   	das    
  4081a2:	74 72                	je     408216 <___crt_xc_end__+0x216>
  4081a4:	75 73                	jne    408219 <___crt_xc_end__+0x219>
  4081a6:	74 49                	je     4081f1 <___crt_xc_end__+0x1f1>
  4081a8:	6e                   	outs   dx,BYTE PTR ds:[esi]
  4081a9:	66 6f                	outs   dx,WORD PTR ds:[esi]
  4081ab:	3e 0a 20             	or     ah,BYTE PTR ds:[eax]
  4081ae:	20 3c 63             	and    BYTE PTR [ebx+eiz*2],bh
  4081b1:	6f                   	outs   dx,DWORD PTR ds:[esi]
  4081b2:	6d                   	ins    DWORD PTR es:[edi],dx
  4081b3:	70 61                	jo     408216 <___crt_xc_end__+0x216>
  4081b5:	74 69                	je     408220 <___crt_xc_end__+0x220>
  4081b7:	62 69 6c             	bound  ebp,QWORD PTR [ecx+0x6c]
  4081ba:	69 74 79 20 78 6d 6c 	imul   esi,DWORD PTR [ecx+edi*2+0x20],0x6e6c6d78
  4081c1:	6e 
  4081c2:	73 3d                	jae    408201 <___crt_xc_end__+0x201>
  4081c4:	22 75 72             	and    dh,BYTE PTR [ebp+0x72]
  4081c7:	6e                   	outs   dx,BYTE PTR ds:[esi]
  4081c8:	3a 73 63             	cmp    dh,BYTE PTR [ebx+0x63]
  4081cb:	68 65 6d 61 73       	push   0x73616d65
  4081d0:	2d 6d 69 63 72       	sub    eax,0x7263696d
  4081d5:	6f                   	outs   dx,DWORD PTR ds:[esi]
  4081d6:	73 6f                	jae    408247 <___crt_xc_end__+0x247>
  4081d8:	66 74 2d             	data16 je 408208 <___crt_xc_end__+0x208>
  4081db:	63 6f 6d             	arpl   WORD PTR [edi+0x6d],bp
  4081de:	3a 63 6f             	cmp    ah,BYTE PTR [ebx+0x6f]
  4081e1:	6d                   	ins    DWORD PTR es:[edi],dx
  4081e2:	70 61                	jo     408245 <___crt_xc_end__+0x245>
  4081e4:	74 69                	je     40824f <___crt_xc_end__+0x24f>
  4081e6:	62 69 6c             	bound  ebp,QWORD PTR [ecx+0x6c]
  4081e9:	69 74 79 2e 76 31 22 	imul   esi,DWORD PTR [ecx+edi*2+0x2e],0x3e223176
  4081f0:	3e 
  4081f1:	0a 20                	or     ah,BYTE PTR [eax]
  4081f3:	20 20                	and    BYTE PTR [eax],ah
  4081f5:	20 3c 61             	and    BYTE PTR [ecx+eiz*2],bh
  4081f8:	70 70                	jo     40826a <___crt_xc_end__+0x26a>
  4081fa:	6c                   	ins    BYTE PTR es:[edi],dx
  4081fb:	69 63 61 74 69 6f 6e 	imul   esp,DWORD PTR [ebx+0x61],0x6e6f6974
  408202:	3e 0a 20             	or     ah,BYTE PTR ds:[eax]
  408205:	20 20                	and    BYTE PTR [eax],ah
  408207:	20 20                	and    BYTE PTR [eax],ah
  408209:	20 3c 21             	and    BYTE PTR [ecx+eiz*1],bh
  40820c:	2d 2d 54 68 65       	sub    eax,0x6568542d
  408211:	20 49 44             	and    BYTE PTR [ecx+0x44],cl
  408214:	20 62 65             	and    BYTE PTR [edx+0x65],ah
  408217:	6c                   	ins    BYTE PTR es:[edi],dx
  408218:	6f                   	outs   dx,DWORD PTR ds:[esi]
  408219:	77 20                	ja     40823b <___crt_xc_end__+0x23b>
  40821b:	69 6e 64 69 63 61 74 	imul   ebp,DWORD PTR [esi+0x64],0x74616369
  408222:	65 73 20             	gs jae 408245 <___crt_xc_end__+0x245>
  408225:	61                   	popa   
  408226:	70 70                	jo     408298 <___crt_xc_end__+0x298>
  408228:	6c                   	ins    BYTE PTR es:[edi],dx
  408229:	69 63 61 74 69 6f 6e 	imul   esp,DWORD PTR [ebx+0x61],0x6e6f6974
  408230:	20 73 75             	and    BYTE PTR [ebx+0x75],dh
  408233:	70 70                	jo     4082a5 <___crt_xc_end__+0x2a5>
  408235:	6f                   	outs   dx,DWORD PTR ds:[esi]
  408236:	72 74                	jb     4082ac <___crt_xc_end__+0x2ac>
  408238:	20 66 6f             	and    BYTE PTR [esi+0x6f],ah
  40823b:	72 20                	jb     40825d <___crt_xc_end__+0x25d>
  40823d:	57                   	push   edi
  40823e:	69 6e 64 6f 77 73 20 	imul   ebp,DWORD PTR [esi+0x64],0x2073776f
  408245:	56                   	push   esi
  408246:	69 73 74 61 20 2d 2d 	imul   esi,DWORD PTR [ebx+0x74],0x2d2d2061
  40824d:	3e 0a 20             	or     ah,BYTE PTR ds:[eax]
  408250:	20 20                	and    BYTE PTR [eax],ah
  408252:	20 20                	and    BYTE PTR [eax],ah
  408254:	20 3c 73             	and    BYTE PTR [ebx+esi*2],bh
  408257:	75 70                	jne    4082c9 <___crt_xc_end__+0x2c9>
  408259:	70 6f                	jo     4082ca <___crt_xc_end__+0x2ca>
  40825b:	72 74                	jb     4082d1 <___crt_xc_end__+0x2d1>
  40825d:	65 64 4f             	gs fs dec edi
  408260:	53                   	push   ebx
  408261:	20 49 64             	and    BYTE PTR [ecx+0x64],cl
  408264:	3d 22 7b 65 32       	cmp    eax,0x32657b22
  408269:	30 31                	xor    BYTE PTR [ecx],dh
  40826b:	31 34 35 37 2d 31 35 	xor    DWORD PTR [esi*1+0x35312d37],esi
  408272:	34 36                	xor    al,0x36
  408274:	2d 34 33 63 35       	sub    eax,0x35633334
  408279:	2d 61 35 66 65       	sub    eax,0x65663561
  40827e:	2d 30 30 38 64       	sub    eax,0x64383030
  408283:	65 65 65 33 64 33 66 	gs gs xor esp,DWORD PTR gs:[ebx+esi*1+0x66]
  40828a:	30 7d 22             	xor    BYTE PTR [ebp+0x22],bh
  40828d:	2f                   	das    
  40828e:	3e 0a 20             	or     ah,BYTE PTR ds:[eax]
  408291:	20 20                	and    BYTE PTR [eax],ah
  408293:	20 20                	and    BYTE PTR [eax],ah
  408295:	20 3c 21             	and    BYTE PTR [ecx+eiz*1],bh
  408298:	2d 2d 54 68 65       	sub    eax,0x6568542d
  40829d:	20 49 44             	and    BYTE PTR [ecx+0x44],cl
  4082a0:	20 62 65             	and    BYTE PTR [edx+0x65],ah
  4082a3:	6c                   	ins    BYTE PTR es:[edi],dx
  4082a4:	6f                   	outs   dx,DWORD PTR ds:[esi]
  4082a5:	77 20                	ja     4082c7 <___crt_xc_end__+0x2c7>
  4082a7:	69 6e 64 69 63 61 74 	imul   ebp,DWORD PTR [esi+0x64],0x74616369
  4082ae:	65 73 20             	gs jae 4082d1 <___crt_xc_end__+0x2d1>
  4082b1:	61                   	popa   
  4082b2:	70 70                	jo     408324 <___crt_xc_end__+0x324>
  4082b4:	6c                   	ins    BYTE PTR es:[edi],dx
  4082b5:	69 63 61 74 69 6f 6e 	imul   esp,DWORD PTR [ebx+0x61],0x6e6f6974
  4082bc:	20 73 75             	and    BYTE PTR [ebx+0x75],dh
  4082bf:	70 70                	jo     408331 <___crt_xc_end__+0x331>
  4082c1:	6f                   	outs   dx,DWORD PTR ds:[esi]
  4082c2:	72 74                	jb     408338 <___crt_xc_end__+0x338>
  4082c4:	20 66 6f             	and    BYTE PTR [esi+0x6f],ah
  4082c7:	72 20                	jb     4082e9 <___crt_xc_end__+0x2e9>
  4082c9:	57                   	push   edi
  4082ca:	69 6e 64 6f 77 73 20 	imul   ebp,DWORD PTR [esi+0x64],0x2073776f
  4082d1:	37                   	aaa    
  4082d2:	20 2d 2d 3e 0a 20    	and    BYTE PTR ds:0x200a3e2d,ch
  4082d8:	20 20                	and    BYTE PTR [eax],ah
  4082da:	20 20                	and    BYTE PTR [eax],ah
  4082dc:	20 3c 73             	and    BYTE PTR [ebx+esi*2],bh
  4082df:	75 70                	jne    408351 <___crt_xc_end__+0x351>
  4082e1:	70 6f                	jo     408352 <___crt_xc_end__+0x352>
  4082e3:	72 74                	jb     408359 <___crt_xc_end__+0x359>
  4082e5:	65 64 4f             	gs fs dec edi
  4082e8:	53                   	push   ebx
  4082e9:	20 49 64             	and    BYTE PTR [ecx+0x64],cl
  4082ec:	3d 22 7b 33 35       	cmp    eax,0x35337b22
  4082f1:	31 33                	xor    DWORD PTR [ebx],esi
  4082f3:	38 62 39             	cmp    BYTE PTR [edx+0x39],ah
  4082f6:	61                   	popa   
  4082f7:	2d 35 64 39 36       	sub    eax,0x36396435
  4082fc:	2d 34 66 62 64       	sub    eax,0x64626634
  408301:	2d 38 65 32 64       	sub    eax,0x64326538
  408306:	2d 61 32 34 34       	sub    eax,0x34343261
  40830b:	30 32                	xor    BYTE PTR [edx],dh
  40830d:	32 35 66 39 33 61    	xor    dh,BYTE PTR ds:0x61333966
  408313:	7d 22                	jge    408337 <___crt_xc_end__+0x337>
  408315:	2f                   	das    
  408316:	3e 0a 20             	or     ah,BYTE PTR ds:[eax]
  408319:	20 20                	and    BYTE PTR [eax],ah
  40831b:	20 20                	and    BYTE PTR [eax],ah
  40831d:	20 3c 21             	and    BYTE PTR [ecx+eiz*1],bh
  408320:	2d 2d 54 68 65       	sub    eax,0x6568542d
  408325:	20 49 44             	and    BYTE PTR [ecx+0x44],cl
  408328:	20 62 65             	and    BYTE PTR [edx+0x65],ah
  40832b:	6c                   	ins    BYTE PTR es:[edi],dx
  40832c:	6f                   	outs   dx,DWORD PTR ds:[esi]
  40832d:	77 20                	ja     40834f <___crt_xc_end__+0x34f>
  40832f:	69 6e 64 69 63 61 74 	imul   ebp,DWORD PTR [esi+0x64],0x74616369
  408336:	65 73 20             	gs jae 408359 <___crt_xc_end__+0x359>
  408339:	61                   	popa   
  40833a:	70 70                	jo     4083ac <___crt_xc_end__+0x3ac>
  40833c:	6c                   	ins    BYTE PTR es:[edi],dx
  40833d:	69 63 61 74 69 6f 6e 	imul   esp,DWORD PTR [ebx+0x61],0x6e6f6974
  408344:	20 73 75             	and    BYTE PTR [ebx+0x75],dh
  408347:	70 70                	jo     4083b9 <___crt_xc_end__+0x3b9>
  408349:	6f                   	outs   dx,DWORD PTR ds:[esi]
  40834a:	72 74                	jb     4083c0 <___crt_xc_end__+0x3c0>
  40834c:	20 66 6f             	and    BYTE PTR [esi+0x6f],ah
  40834f:	72 20                	jb     408371 <___crt_xc_end__+0x371>
  408351:	57                   	push   edi
  408352:	69 6e 64 6f 77 73 20 	imul   ebp,DWORD PTR [esi+0x64],0x2073776f
  408359:	38 20                	cmp    BYTE PTR [eax],ah
  40835b:	2d 2d 3e 0a 20       	sub    eax,0x200a3e2d
  408360:	20 20                	and    BYTE PTR [eax],ah
  408362:	20 20                	and    BYTE PTR [eax],ah
  408364:	20 3c 73             	and    BYTE PTR [ebx+esi*2],bh
  408367:	75 70                	jne    4083d9 <___crt_xc_end__+0x3d9>
  408369:	70 6f                	jo     4083da <___crt_xc_end__+0x3da>
  40836b:	72 74                	jb     4083e1 <___crt_xc_end__+0x3e1>
  40836d:	65 64 4f             	gs fs dec edi
  408370:	53                   	push   ebx
  408371:	20 49 64             	and    BYTE PTR [ecx+0x64],cl
  408374:	3d 22 7b 34 61       	cmp    eax,0x61347b22
  408379:	32 66 32             	xor    ah,BYTE PTR [esi+0x32]
  40837c:	38 65 33             	cmp    BYTE PTR [ebp+0x33],ah
  40837f:	2d 35 33 62 39       	sub    eax,0x39623335
  408384:	2d 34 34 34 31       	sub    eax,0x31343434
  408389:	2d 62 61 39 63       	sub    eax,0x63396162
  40838e:	2d 64 36 39 64       	sub    eax,0x64393664
  408393:	34 61                	xor    al,0x61
  408395:	34 61                	xor    al,0x61
  408397:	36 65 33 38          	ss xor edi,DWORD PTR gs:[eax]
  40839b:	7d 22                	jge    4083bf <___crt_xc_end__+0x3bf>
  40839d:	2f                   	das    
  40839e:	3e 0a 20             	or     ah,BYTE PTR ds:[eax]
  4083a1:	20 20                	and    BYTE PTR [eax],ah
  4083a3:	20 20                	and    BYTE PTR [eax],ah
  4083a5:	20 3c 21             	and    BYTE PTR [ecx+eiz*1],bh
  4083a8:	2d 2d 54 68 65       	sub    eax,0x6568542d
  4083ad:	20 49 44             	and    BYTE PTR [ecx+0x44],cl
  4083b0:	20 62 65             	and    BYTE PTR [edx+0x65],ah
  4083b3:	6c                   	ins    BYTE PTR es:[edi],dx
  4083b4:	6f                   	outs   dx,DWORD PTR ds:[esi]
  4083b5:	77 20                	ja     4083d7 <___crt_xc_end__+0x3d7>
  4083b7:	69 6e 64 69 63 61 74 	imul   ebp,DWORD PTR [esi+0x64],0x74616369
  4083be:	65 73 20             	gs jae 4083e1 <___crt_xc_end__+0x3e1>
  4083c1:	61                   	popa   
  4083c2:	70 70                	jo     408434 <___crt_xc_end__+0x434>
  4083c4:	6c                   	ins    BYTE PTR es:[edi],dx
  4083c5:	69 63 61 74 69 6f 6e 	imul   esp,DWORD PTR [ebx+0x61],0x6e6f6974
  4083cc:	20 73 75             	and    BYTE PTR [ebx+0x75],dh
  4083cf:	70 70                	jo     408441 <___crt_xc_end__+0x441>
  4083d1:	6f                   	outs   dx,DWORD PTR ds:[esi]
  4083d2:	72 74                	jb     408448 <___crt_xc_end__+0x448>
  4083d4:	20 66 6f             	and    BYTE PTR [esi+0x6f],ah
  4083d7:	72 20                	jb     4083f9 <___crt_xc_end__+0x3f9>
  4083d9:	57                   	push   edi
  4083da:	69 6e 64 6f 77 73 20 	imul   ebp,DWORD PTR [esi+0x64],0x2073776f
  4083e1:	38 2e                	cmp    BYTE PTR [esi],ch
  4083e3:	31 20                	xor    DWORD PTR [eax],esp
  4083e5:	2d 2d 3e 0a 20       	sub    eax,0x200a3e2d
  4083ea:	20 20                	and    BYTE PTR [eax],ah
  4083ec:	20 20                	and    BYTE PTR [eax],ah
  4083ee:	20 3c 73             	and    BYTE PTR [ebx+esi*2],bh
  4083f1:	75 70                	jne    408463 <___crt_xc_end__+0x463>
  4083f3:	70 6f                	jo     408464 <___crt_xc_end__+0x464>
  4083f5:	72 74                	jb     40846b <___crt_xc_end__+0x46b>
  4083f7:	65 64 4f             	gs fs dec edi
  4083fa:	53                   	push   ebx
  4083fb:	20 49 64             	and    BYTE PTR [ecx+0x64],cl
  4083fe:	3d 22 7b 31 66       	cmp    eax,0x66317b22
  408403:	36 37                	ss aaa 
  408405:	36 63 37             	arpl   WORD PTR ss:[edi],si
  408408:	36 2d 38 30 65 31    	ss sub eax,0x31653038
  40840e:	2d 34 32 33 39       	sub    eax,0x39333234
  408413:	2d 39 35 62 62       	sub    eax,0x62623539
  408418:	2d 38 33 64 30       	sub    eax,0x30643338
  40841d:	66 36 64 30 64 61 37 	data16 ss xor BYTE PTR fs:[ecx+eiz*2+0x37],ah
  408424:	38 7d 22             	cmp    BYTE PTR [ebp+0x22],bh
  408427:	2f                   	das    
  408428:	3e 20 0a             	and    BYTE PTR ds:[edx],cl
  40842b:	20 20                	and    BYTE PTR [eax],ah
  40842d:	20 20                	and    BYTE PTR [eax],ah
  40842f:	20 20                	and    BYTE PTR [eax],ah
  408431:	3c 21                	cmp    al,0x21
  408433:	2d 2d 54 68 65       	sub    eax,0x6568542d
  408438:	20 49 44             	and    BYTE PTR [ecx+0x44],cl
  40843b:	20 62 65             	and    BYTE PTR [edx+0x65],ah
  40843e:	6c                   	ins    BYTE PTR es:[edi],dx
  40843f:	6f                   	outs   dx,DWORD PTR ds:[esi]
  408440:	77 20                	ja     408462 <___crt_xc_end__+0x462>
  408442:	69 6e 64 69 63 61 74 	imul   ebp,DWORD PTR [esi+0x64],0x74616369
  408449:	65 73 20             	gs jae 40846c <___crt_xc_end__+0x46c>
  40844c:	61                   	popa   
  40844d:	70 70                	jo     4084bf <___crt_xc_end__+0x4bf>
  40844f:	6c                   	ins    BYTE PTR es:[edi],dx
  408450:	69 63 61 74 69 6f 6e 	imul   esp,DWORD PTR [ebx+0x61],0x6e6f6974
  408457:	20 73 75             	and    BYTE PTR [ebx+0x75],dh
  40845a:	70 70                	jo     4084cc <___crt_xc_end__+0x4cc>
  40845c:	6f                   	outs   dx,DWORD PTR ds:[esi]
  40845d:	72 74                	jb     4084d3 <___crt_xc_end__+0x4d3>
  40845f:	20 66 6f             	and    BYTE PTR [esi+0x6f],ah
  408462:	72 20                	jb     408484 <___crt_xc_end__+0x484>
  408464:	57                   	push   edi
  408465:	69 6e 64 6f 77 73 20 	imul   ebp,DWORD PTR [esi+0x64],0x2073776f
  40846c:	31 30                	xor    DWORD PTR [eax],esi
  40846e:	20 2d 2d 3e 0a 20    	and    BYTE PTR ds:0x200a3e2d,ch
  408474:	20 20                	and    BYTE PTR [eax],ah
  408476:	20 20                	and    BYTE PTR [eax],ah
  408478:	20 3c 73             	and    BYTE PTR [ebx+esi*2],bh
  40847b:	75 70                	jne    4084ed <___crt_xc_end__+0x4ed>
  40847d:	70 6f                	jo     4084ee <___crt_xc_end__+0x4ee>
  40847f:	72 74                	jb     4084f5 <___crt_xc_end__+0x4f5>
  408481:	65 64 4f             	gs fs dec edi
  408484:	53                   	push   ebx
  408485:	20 49 64             	and    BYTE PTR [ecx+0x64],cl
  408488:	3d 22 7b 38 65       	cmp    eax,0x65387b22
  40848d:	30 66 37             	xor    BYTE PTR [esi+0x37],ah
  408490:	61                   	popa   
  408491:	31 32                	xor    DWORD PTR [edx],esi
  408493:	2d 62 66 62 33       	sub    eax,0x33626662
  408498:	2d 34 66 65 38       	sub    eax,0x38656634
  40849d:	2d 62 39 61 35       	sub    eax,0x35613962
  4084a2:	2d 34 38 66 64       	sub    eax,0x64663834
  4084a7:	35 30 61 31 35       	xor    eax,0x35316130
  4084ac:	61                   	popa   
  4084ad:	39 61 7d             	cmp    DWORD PTR [ecx+0x7d],esp
  4084b0:	22 2f                	and    ch,BYTE PTR [edi]
  4084b2:	3e 20 0a             	and    BYTE PTR ds:[edx],cl
  4084b5:	20 20                	and    BYTE PTR [eax],ah
  4084b7:	20 20                	and    BYTE PTR [eax],ah
  4084b9:	3c 2f                	cmp    al,0x2f
  4084bb:	61                   	popa   
  4084bc:	70 70                	jo     40852e <___crt_xc_end__+0x52e>
  4084be:	6c                   	ins    BYTE PTR es:[edi],dx
  4084bf:	69 63 61 74 69 6f 6e 	imul   esp,DWORD PTR [ebx+0x61],0x6e6f6974
  4084c6:	3e 0a 20             	or     ah,BYTE PTR ds:[eax]
  4084c9:	20 3c 2f             	and    BYTE PTR [edi+ebp*1],bh
  4084cc:	63 6f 6d             	arpl   WORD PTR [edi+0x6d],bp
  4084cf:	70 61                	jo     408532 <___crt_xc_end__+0x532>
  4084d1:	74 69                	je     40853c <___crt_xc_end__+0x53c>
  4084d3:	62 69 6c             	bound  ebp,QWORD PTR [ecx+0x6c]
  4084d6:	69 74 79 3e 0a 3c 2f 	imul   esi,DWORD PTR [ecx+edi*2+0x3e],0x612f3c0a
  4084dd:	61 
  4084de:	73 73                	jae    408553 <___crt_xc_end__+0x553>
  4084e0:	65 6d                	gs ins DWORD PTR es:[edi],dx
  4084e2:	62 6c 79 3e          	bound  ebp,QWORD PTR [ecx+edi*2+0x3e]
  4084e6:	0a 00                	or     al,BYTE PTR [eax]
